(dp0
S'METTS MARK'
p1
(dp2
S'to_messages'
p3
F0.04969520275642724
sS'deferral_payments'
p4
F0.0
sS'bonus_to_salary_ratio'
p5
F0.06686122352267185
sS'expenses'
p6
F0.41221263928170204
sS'poi'
p7
F0.0
sS'long_term_incentive'
p8
F0.0
sS'from_poi_to_this_person'
p9
F0.07196969696969698
sS'deferred_income'
p10
F0.0
sS'restricted_stock_deferred'
p11
F0.0
sS'shared_receipt_with_poi'
p12
F0.12683457148034064
sS'non_salary'
p13
F0.008445262195455702
sS'loan_advances'
p14
F0.0
sS'from_messages'
p15
F0.0011841738645862357
sS'other'
p16
F0.00016795806145122134
sS'to_poi_ratio'
p17
F0.21665480239394658
sS'bonus_to_total_ratio'
p18
F0.10874916535367814
sS'bonus'
p19
F0.075
sS'total_stock_value'
p20
F0.011913277759404088
sS'from_this_person_to_poi'
p21
F0.0016420361247947454
sS'from_poi_ratio'
p22
F0.034482758620689655
sS'restricted_stock'
p23
F0.03963379812642099
sS'salary'
p24
F0.329165684296536
sS'total_payments'
p25
F0.010253274646850635
sS'shared_poi_ratio'
p26
F0.866441623022027
sS'exercised_stock_options'
p27
F0.0
ssS'BAXTER JOHN C'
p28
(dp29
g3
F0.058772859793267955
sg4
F0.20160884021913836
sg5
F0.18312879147225472
sg6
F0.04895896626639798
sg7
F0.0
sg8
F0.3082451353957703
sg9
F0.05018939393939394
sg10
F0.39552007113371646
sg11
F0.0
sg12
F0.10726580902337379
sg13
F0.10600780690740166
sg14
F0.0
sg15
F0.002020061298411814
sg16
F0.25679272112233825
sg17
F0.12916121979805267
sg18
F0.040988913880464856
sg19
F0.15
sg20
F0.21631523370824213
sg21
F0.009852216748768473
sg22
F0.14634146341463414
sg23
F0.26709089078800846
sg24
F0.2403600244047737
sg25
F0.05440666533584129
sg26
F0.6215710091819834
sg27
F0.1944936914644951
ssS'ELLIOTT STEVEN'
p30
(dp31
g3
F0.058772859793267955
sg4
F0.0
sg5
F0.08345922111984917
sg6
F0.34337720697840124
sg7
F0.0
sg8
F0.0
sg9
F0.05018939393939394
sg10
F0.11435070223428584
sg11
F0.0
sg12
F0.10726580902337379
sg13
F0.04693803318916234
sg14
F0.0
sg15
F0.002020061298411814
sg16
F0.0012510945025685518
sg17
F0.12916121979805267
sg18
F0.3181444483803676
sg19
F0.04375
sg20
F0.13599520245111402
sg21
F0.009852216748768473
sg22
F0.14634146341463414
sg23
F0.12115079746267603
sg24
F0.15382656412822224
sg25
F0.002044471062239377
sg26
F0.6215710091819834
sg27
F0.14237479119832827
ssS'CORDES WILLIAM R'
p32
(dp33
g3
F0.046846011131725415
sg4
F0.0
sg5
F0.0
sg6
F0.0
sg7
F0.0
sg8
F0.0
sg9
F0.01893939393939394
sg10
F0.0
sg11
F0.0
sg12
F0.01014676571842725
sg13
F0.006843913580887985
sg14
F0.0
sg15
F0.0
sg16
F0.0
sg17
F0.06022334855742453
sg18
F0.0
sg19
F0.0
sg20
F0.021139958279031854
sg21
F0.0
sg22
F0.0
sg23
F0.02617145430598954
sg24
F0.0
sg25
F0.0
sg26
F0.05854836898218962
sg27
F0.018977603138476615
ssS'HANNON KEVIN P'
p34
(dp35
g3
F0.06546514709780014
sg4
F0.0
sg5
F0.25131254526343844
sg6
F0.1487959154233858
sg7
F1.0
sg8
F0.31426134316366705
sg9
F0.06060606060606061
sg10
F0.8894599510442058
sg11
F0.0
sg12
F0.1871715890559884
sg13
F0.06297826385281817
sg14
F0.0
sg15
F0.0013931457230426303
sg16
F0.0010955885042938864
sg17
F0.14089382062506364
sg18
F1.0
sg19
F0.1875
sg20
F0.1301375452916202
sg21
F0.034482758620689655
sg22
F0.65625
sg23
F0.05778903152985016
sg24
F0.2189347568251477
sg25
F0.002787587649967589
sg26
F0.9890972791566082
sg27
F0.1612303216360921
ssS'MORDAUNT KRISTINA M'
p36
(dp37
g3
F0.058772859793267955
sg4
F0.0
sg5
F0.04959905226345072
sg6
F0.15307545363542183
sg7
F0.0
sg8
F0.0
sg9
F0.05018939393939394
sg10
F0.0
sg11
F0.0
sg12
F0.10726580902337379
sg13
F0.0037571466187410886
sg14
F0.0
sg15
F0.002020061298411814
sg16
F0.0001362004739699272
sg17
F0.12916121979805267
sg18
F0.0995156361538127
sg19
F0.040625
sg20
F0.00424576804785364
sg21
F0.009852216748768473
sg22
F0.14634146341463414
sg23
F0.014125072637327395
sg24
F0.24035192547545214
sg25
F0.006069170107360102
sg26
F0.6215710091819834
sg27
F0.0
ssS'MEYER ROCKFORD G'
p38
(dp39
g3
F0.011595547309833023
sg4
F0.28757272066706185
sg5
F0.0
sg6
F0.0
sg7
F0.0
sg8
F0.0
sg9
F0.0
sg10
F0.0
sg11
F0.0
sg12
F0.0036238448994383035
sg13
F0.006301297173725435
sg14
F0.0
sg15
F0.0011145165784341043
sg16
F0.0
sg17
F0.0
sg18
F0.0
sg19
F0.0
sg20
F0.019463886821763955
sg21
F0.0
sg22
F0.0
sg23
F0.03132323431172601
sg24
F0.0
sg25
F0.017846955333330958
sg26
F0.07779130460793884
sg27
F0.014367167899369006
ssS'MCMAHON JEFFREY'
p40
(dp41
g3
F0.15226610124569306
sg4
F0.0
sg5
F0.2860873248866635
sg6
F0.599345173826187
sg7
F0.0
sg8
F0.13504439081329195
sg9
F0.10984848484848485
sg10
F0.0
sg11
F0.0
sg12
F0.4033339373074832
sg13
F0.03554626607470288
sg14
F0.0
sg15
F0.0025076623014767345
sg16
F0.028702777842933923
sg17
F0.11331707096715907
sg18
F0.12205123977249785
sg19
F0.325
sg20
F0.03385975074199638
sg21
F0.04269293924466338
sg22
F0.5416666666666666
sg23
F0.03785480175920189
sg24
F0.3333591299230242
sg25
F0.03958844336430838
sg26
F0.9439610911594317
sg27
F0.03214282220671575
ssS'HAEDICKE MARK E'
p42
(dp43
g3
F0.26186058839120063
sg4
F0.3356978927927381
sg5
F0.12529496921437913
sg6
F0.3329603126379703
sg7
F0.0
sg8
F0.1911104097341449
sg9
F0.34090909090909094
sg10
F0.266661263913279
sg11
F0.12663707674055188
sg12
F0.33429969197318354
sg13
F0.022379274721765218
sg14
F0.0
sg15
F0.1343689049874617
sg16
F0.005056309870653952
sg17
F0.20658306045440317
sg18
F0.05735142234366787
sg19
F0.14375
sg20
F0.01635293676381455
sg21
F0.10016420361247948
sg22
F0.03142709943328181
sg23
F0.03550872955366775
sg24
F0.3366679924913926
sg25
F0.037264124311256586
sg26
F0.45009232425637213
sg27
F0.017722813393491816
ssS'PIPER GREGORY F'
p44
(dp45
g3
F0.07825337927378742
sg4
F0.17582663112903552
sg5
F0.08272670400952213
sg6
F0.18821662594038374
sg7
F0.0
sg8
F0.0
sg9
F0.11553030303030304
sg10
F0.009511794648192294
sg11
F0.1572492119378458
sg12
F0.13408226127921724
sg13
F0.011428742712522625
sg14
F0.0
sg15
F0.014628030091947618
sg16
F7.509848954543116e-05
sg17
F0.22670831471487987
sg18
F0.04430282106633042
sg19
F0.049999999999999996
sg20
F0.017924834083953196
sg21
F0.07881773399014778
sg22
F0.21621621621621623
sg23
F0.027744376763263075
sg24
F0.1773584532124853
sg25
F0.016778992596093736
sg26
F0.5911635591974002
sg27
F0.025628279921407655
ssS'HUMPHREY GENE E'
p46
(dp47
g3
F0.004704479194275113
sg4
F0.4612588474542515
sg5
F0.0
sg6
F0.021830453351284956
sg7
F0.0
sg8
F0.0
sg9
F0.01893939393939394
sg10
F0.0
sg11
F0.0
sg12
F0.02119949266171408
sg13
F0.01508136355431783
sg14
F0.0
sg15
F0.00034828643076065767
sg16
F0.0
sg17
F0.3594581117021277
sg18
F0.0
sg19
F0.0
sg20
F0.04648267917635969
sg21
F0.027914614121510674
sg22
F1.0
sg23
F0.0
sg24
F0.1176360485143864
sg25
F0.029936560417806166
sg26
F0.9272891255582368
sg27
F0.0664592546770177
ssS'NOLES JAMES L'
p48
(dp49
g3
F0.058772859793267955
sg4
F0.12049201881440612
sg5
F0.0
sg6
F0.0
sg7
F0.0
sg8
F0.0
sg9
F0.05018939393939394
sg10
F0.0
sg11
F0.036304996371650494
sg12
F0.10726580902337379
sg13
F0.0030539048911280248
sg14
F0.0
sg15
F0.002020061298411814
sg16
F0.0
sg17
F0.12916121979805267
sg18
F0.0
sg19
F0.0
sg20
F0.007507725807318001
sg21
F0.009852216748768473
sg22
F0.14634146341463414
sg23
F0.03138264483737435
sg24
F0.0
sg25
F0.007477815255965217
sg26
F0.6215710091819834
sg27
F0.0
ssS'BLACHMAN JEREMY M'
p50
(dp51
g3
F0.16021733368672142
sg4
F0.0
sg5
F0.1394006089109221
sg6
F0.3681014849429322
sg7
F0.0
sg8
F0.16165963842894499
sg9
F0.04734848484848485
sg10
F0.0
sg11
F0.0
sg12
F0.4210907773147309
sg13
F0.017934997689667862
sg14
F0.0
sg15
F0.0001393145723042631
sg16
F2.6255513054443797e-05
sg17
F0.046475392220073075
sg18
F0.08119099909752743
sg19
F0.10625
sg20
F0.01943295630685009
sg21
F0.003284072249589491
sg22
F0.14285714285714285
sg23
F0.012806186065095239
sg24
F0.22366183190582203
sg25
F0.01945576503807805
sg26
F0.9375768761320108
sg27
F0.022280902647414214
ssS'SUNDE MARTIN'
p52
(dp53
g3
F0.17161410018552875
sg4
F0.0
sg5
F0.11081458966660818
sg6
F0.0
sg7
F0.0
sg8
F0.09259685383196053
sg9
F0.07007575757575758
sg10
F0.0
sg11
F0.0
sg12
F0.46439572386301864
sg13
F0.013095340831392202
sg14
F0.0
sg15
F0.0018110894399554194
sg16
F0.010726342358955528
sg17
F0.06431407695584725
sg18
F0.08719295940586519
sg19
F0.0875
sg20
F0.014231702095850876
sg21
F0.02134646962233169
sg22
F0.34210526315789475
sg23
F0.04734686953949865
sg24
F0.2317067683652221
sg25
F0.014919487141114698
sg26
F0.9673128175097986
sg27
F0.0
ssS'GIBBS DANA R'
p54
(dp55
g3
F0.007421150278293135
sg4
F0.07851420338292109
sg5
F0.0
sg6
F0.0
sg7
F0.0
sg8
F0.08977124184276779
sg9
F0.0
sg10
F0.0
sg11
F0.0
sg12
F0.003805037144410219
sg13
F0.01766830401962986
sg14
F0.0
sg15
F0.0
sg16
F0.0
sg17
F0.0
sg18
F0.0
sg19
F0.0
sg20
F0.04516944566856522
sg21
F0.0
sg22
F0.0
sg23
F0.0
sg24
F0.0
sg25
F0.009332985051447524
sg26
F0.11978194405597861
sg27
F0.06458164087137258
ssS'LOWRY CHARLES P'
p56
(dp57
g3
F0.058772859793267955
sg4
F0.0
sg5
F0.0
sg6
F0.0
sg7
F0.0
sg8
F0.0
sg9
F0.05018939393939394
sg10
F0.0
sg11
F0.05900809755460762
sg12
F0.10726580902337379
sg13
F0.003466773799435325
sg14
F0.0
sg15
F0.002020061298411814
sg16
F0.0
sg17
F0.12916121979805267
sg18
F0.0
sg19
F0.0
sg20
F0.0075789942748614655
sg21
F0.009852216748768473
sg22
F0.14634146341463414
sg23
F0.010411135740925125
sg24
F0.0
sg25
F0.0
sg26
F0.6215710091819834
sg27
F0.010836172088911081
ssS'COLWELL WESLEY'
p58
(dp59
g3
F0.11270871985157697
sg4
F0.004295945691529005
sg5
F0.16952147853630384
sg6
F0.07218824722529431
sg7
F1.0
sg8
F0.0
sg9
F0.4545454545454546
sg10
F0.04110905590879544
sg11
F0.0
sg12
F0.20474723681826418
sg13
F0.013293126331247608
sg14
F0.0
sg15
F0.0019504040122596822
sg16
F0.009820720213820265
sg17
F0.6281315808583255
sg18
F0.1549612706864992
sg19
F0.15
sg20
F0.014217896375566742
sg21
F0.0180623973727422
sg22
F0.275
sg23
F0.04730093985148317
sg24
F0.2596534738107622
sg25
F0.014391145026719008
sg26
F0.6365045832682057
sg27
F0.0
ssS'MULLER MARK S'
p60
(dp61
g3
F0.005234561357010337
sg4
F0.13115377493974628
sg5
F0.178172785868045
sg6
F0.0
sg7
F0.0
sg8
F0.33535460759966995
sg9
F0.022727272727272728
sg10
F0.20517146227613056
sg11
F0.0
sg12
F0.020293531436854504
sg13
F0.027972906807866824
sg14
F0.0
sg15
F0.00027862914460852607
sg16
F9.141165758293484e-05
sg17
F0.40597622027534425
sg18
F0.06611352448051833
sg19
F0.13749999999999998
sg20
F0.02885045305772066
sg21
F0.0
sg22
F0.0
sg23
F0.024423213216586116
sg24
F0.2264586621648618
sg25
F0.03092001159175743
sg26
F0.8342334543795992
sg27
F0.030753120729056713
ssS'JACKSON CHARLENE R'
p62
(dp63
g3
F0.013318314338722503
sg4
F0.0
sg5
F0.03531501643504236
sg6
F0.04450457460341052
sg7
F0.0
sg8
F0.0
sg9
F0.04734848484848485
sg10
F0.0
sg11
F0.0
sg12
F0.02083710817177025
sg13
F0.006515398345751692
sg14
F0.0
sg15
F0.003064920590693787
sg16
F0.0002350447584101862
sg17
F0.4458395183902359
sg18
F0.08729306292870612
sg19
F0.03125
sg20
F0.014777720369330304
sg21
F0.031198686371100164
sg22
F0.3392857142857143
sg23
F0.03662669067655785
sg24
F0.25966787190733387
sg25
F0.005322277923054558
sg26
F0.4427406224956495
sg27
F0.005387822611974991
ssS'WESTFAHL RICHARD K'
p64
(dp65
g3
F0.058772859793267955
sg4
F0.0
sg5
F0.0
sg6
F0.22674121252125565
sg7
F0.0
sg8
F0.04978996912602514
sg9
F0.05018939393939394
sg10
F0.0030818522845371486
sg11
F0.0
sg12
F0.10726580902337379
sg13
F0.007212654364140055
sg14
F0.0
sg15
F0.002020061298411814
sg16
F0.038720124821797944
sg17
F0.12916121979805267
sg18
F0.0
sg19
F0.0
sg20
F0.007838106060430203
sg21
F0.009852216748768473
sg22
F0.14634146341463414
sg23
F0.02607627552772737
sg24
F0.05736201674138679
sg25
F0.00735937160476943
sg26
F0.6215710091819834
sg27
F0.0
ssS'WALTERS GARETH W'
p66
(dp67
g3
F0.058772859793267955
sg4
F0.00834371922159518
sg5
F0.0
sg6
F0.14768559600984427
sg7
F0.0
sg8
F0.0
sg9
F0.05018939393939394
sg10
F0.0
sg11
F0.0
sg12
F0.10726580902337379
sg13
F0.007014842495521547
sg14
F0.0
sg15
F0.002020061298411814
sg16
F0.0
sg17
F0.12916121979805267
sg18
F0.0
sg19
F0.0
sg20
F0.02097999111302572
sg21
F0.009852216748768473
sg22
F0.14634146341463414
sg23
F0.0
sg24
F0.0
sg25
F0.0008440534445641466
sg26
F0.6215710091819834
sg27
F0.02999643301996391
ssS'WALLS JR ROBERT H'
p68
(dp69
g3
F0.040683805989928434
sg4
F0.0
sg5
F0.09702698679713026
sg6
F0.22265838444153996
sg7
F0.0
sg8
F0.10509337016080665
sg9
F0.032196969696969696
sg10
F0.0
sg11
F0.0
sg12
F0.03859394817901794
sg13
F0.048391202539464835
sg14
F0.0
sg15
F0.009334076344385623
sg16
F1.9305524304738086e-07
sg17
F0.11656942638805214
sg18
F0.09094300952126812
sg19
F0.10625
sg20
F0.12011785035242664
sg21
F0.0
sg22
F0.0
sg23
F0.10516767249070465
sg24
F0.3213394189288176
sg25
F0.01736948238202832
sg26
F0.3073363535699958
sg27
F0.1265428964576616
ssS'KITCHEN LOUISE'
p70
(dp71
g3
F0.5465147097800158
sg4
F0.0
sg5
F0.465518741957916
sg6
F0.025240095644837673
sg7
F0.0
sg8
F0.0
sg9
F0.4753787878787879
sg10
F0.0
sg11
F0.0
sg12
F0.664431962312013
sg13
F0.02469989727191348
sg14
F0.0
sg15
F0.11953190303705769
sg16
F0.009066356851612624
sg17
F0.13905683579489414
sg18
F0.1718770475375868
sg19
F0.38749999999999996
sg20
F0.011141155182038197
sg21
F0.3185550082101806
sg22
F0.11226851851851852
sg23
F0.031575034680979025
sg24
F0.2442655080998292
sg25
F0.03351823038116733
sg26
F0.43082905829298945
sg27
F0.002359412308887661
ssS'CHAN RONNIE'
p72
(dp73
g3
F0.058772859793267955
sg4
F0.0
sg5
F0.0
sg6
F0.0
sg7
F0.0
sg8
F0.0
sg9
F0.05018939393939394
sg10
F0.028188675562566455
sg11
F0.012463092582424966
sg12
F0.10726580902337379
sg13
F0.00021398251259228748
sg14
F0.0
sg15
F0.002020061298411814
sg16
F0.0
sg17
F0.12916121979805267
sg18
F0.0
sg19
F0.0
sg20
F0.0
sg21
F0.009852216748768473
sg22
F0.14634146341463414
sg23
F0.002198934620918168
sg24
F0.08889384823326356
sg25
F0.0
sg26
F0.6215710091819834
sg27
F0.0
ssS'BELFER ROBERT'
p74
(dp75
g3
F0.058772859793267955
sg4
F0.0159483677429092
sg5
F0.0
sg6
F0.01435983965938548
sg7
F0.0
sg8
F0.0
sg9
F0.05018939393939394
sg10
F0.0
sg11
F0.016929610019619963
sg12
F0.10726580902337379
sg13
F0.00031232481459018475
sg14
F0.0
sg15
F0.002020061298411814
sg16
F0.0
sg17
F0.12916121979805267
sg18
F0.0
sg19
F0.0
sg20
F0.0
sg21
F0.009852216748768473
sg22
F0.14634146341463414
sg23
F0.0029869878077678617
sg24
F0.09223780616202538
sg25
F3.172080500392657e-05
sg26
F0.6215710091819834
sg27
F0.0
ssS'SHANKMAN JEFFREY A'
p76
(dp77
g3
F0.20964749536178107
sg4
F0.0
sg5
F0.268072224194218
sg6
F0.7823773949458611
sg7
F0.0
sg8
F0.10775028889691327
sg9
F0.17803030303030304
sg10
F0.0
sg11
F0.0
sg12
F0.31310019931146943
sg13
F0.031686202173565284
sg14
F0.0
sg15
F0.18591529674003904
sg16
F0.0001149643972347153
sg17
F0.13427506985408258
sg18
F0.12666899660885908
sg19
F0.25
sg20
F0.0421916454704063
sg21
F0.13628899835796388
sg22
F0.030958597538232
sg23
F0.04268730946461835
sg24
F0.2736628217749613
sg25
F0.029342488160438867
sg26
F0.5278185282654191
sg27
F0.041978627000327
ssS'WODRASKA JOHN'
p78
(dp79
g3
F0.058772859793267955
sg4
F0.0
sg5
F0.0
sg6
F0.0
sg7
F0.0
sg8
F0.0
sg9
F0.05018939393939394
sg10
F0.0
sg11
F0.0
sg12
F0.10726580902337379
sg13
F0.0012497673039058423
sg14
F0.0
sg15
F0.002020061298411814
sg16
F0.018299996071325802
sg17
F0.12916121979805267
sg18
F0.0
sg19
F0.0
sg20
F0.0
sg21
F0.009852216748768473
sg22
F0.14634146341463414
sg23
F0.0
sg24
F0.0
sg25
F0.0018306622146299577
sg26
F0.6215710091819834
sg27
F0.0
ssS'BERGSIEKER RICHARD P'
p80
(dp81
g3
F0.021600848131460376
sg4
F0.0
sg5
F0.05422691602081158
sg6
F0.258673824001259
sg7
F0.0
sg8
F0.0350310586045803
sg9
F0.007575757575757576
sg10
F0.13862999110257831
sg11
F0.0
sg12
F0.04185540858851241
sg13
F0.010389226741229796
sg14
F0.0
sg15
F0.003273892449150181
sg16
F0.0412477971190173
sg17
F0.04805288595078051
sg18
F0.07774689612453206
sg19
F0.03125
sg20
F0.013423904559874656
sg21
F0.0
sg22
F0.0
sg23
F0.04465944084737158
sg24
F0.16910744399590374
sg25
F0.005975774787421601
sg26
F0.6003226771633859
sg27
F0.0
ssS'URQUHART JOHN A'
p82
(dp83
g3
F0.058772859793267955
sg4
F0.0
sg5
F0.0
sg6
F0.999532267018705
sg7
F0.0
sg8
F0.0
sg9
F0.05018939393939394
sg10
F0.01046288850600362
sg11
F0.0
sg12
F0.10726580902337379
sg13
F0.0015073439741004958
sg14
F0.0
sg15
F0.002020061298411814
sg16
F0.0
sg17
F0.12916121979805267
sg18
F0.0
sg19
F0.0
sg20
F0.0
sg21
F0.009852216748768473
sg22
F0.14634146341463414
sg23
F0.0
sg24
F0.032995038055969
sg25
F0.00220796115341791
sg26
F0.6215710091819834
sg27
F0.0
ssS'BIBI PHILIPPE A'
p84
(dp85
g3
F0.10270341902994963
sg4
F0.0
sg5
F0.1908096994726826
sg6
F0.1685543553808964
sg7
F0.0
sg8
F0.07185419150260212
sg9
F0.043560606060606064
sg10
F0.0
sg11
F0.0
sg12
F0.2417104547925349
sg13
F0.024244653761297398
sg14
F0.0
sg15
F0.0019504040122596822
sg16
F0.04109065015117673
sg17
F0.06585218922533068
sg18
F0.09399068402102696
sg19
F0.125
sg20
F0.03754455450060576
sg21
F0.013136288998357963
sg22
F0.2
sg23
F0.025612372130190478
sg24
F0.1922370862571968
sg25
F0.01977208471245206
sg26
F0.8272404498742941
sg27
F0.04267257522217057
ssS'RIEKER PAULA H'
p86
(dp87
g3
F0.08421680360455869
sg4
F0.0334025725884123
sg5
F0.11449875977582863
sg6
F0.1454387291651185
sg7
F1.0
sg8
F0.0
sg9
F0.06628787878787878
sg10
F0.028535669301269898
sg11
F0.0
sg12
F0.22757745968472548
sg13
F0.017496386276379883
sg14
F0.0
sg15
F0.004876010030649206
sg16
F0.00018822886197119635
sg17
F0.12126297744168163
sg18
F0.12257143723652685
sg19
F0.0875
sg20
F0.03907318167973588
sg21
F0.07881773399014778
sg22
F0.5853658536585366
sg23
F0.019215206601627156
sg24
F0.22425125398422327
sg25
F0.010613192322622738
sg26
F0.9451993985301379
sg27
F0.04760742164755116
ssS'WHALEY DAVID A'
p88
(dp89
g3
F0.058772859793267955
sg4
F0.0
sg5
F0.0
sg6
F0.0
sg7
F0.0
sg8
F0.0
sg9
F0.05018939393939394
sg10
F0.0
sg11
F0.0
sg12
F0.10726580902337379
sg13
F0.0006507678890352877
sg14
F0.0
sg15
F0.002020061298411814
sg16
F0.0
sg17
F0.12916121979805267
sg18
F0.0
sg19
F0.0
sg20
F0.00201013730827306
sg21
F0.009852216748768473
sg22
F0.14634146341463414
sg23
F0.0
sg24
F0.0
sg25
F0.0
sg26
F0.6215710091819834
sg27
F0.002874021671587228
ssS'BECK SALLY W'
p90
(dp91
g3
F0.4809170421415319
sg4
F0.0
sg5
F0.1233441638996078
sg6
F0.16249131196915587
sg7
F0.0
sg8
F0.0
sg9
F0.2727272727272727
sg10
F0.0
sg11
F0.0
sg12
F0.47780394999094034
sg13
F0.0056941036657201845
sg14
F0.0
sg15
F0.3016857063248816
sg16
F5.463463378240878e-05
sg17
F0.09057459897325519
sg18
F0.13901838329886723
sg19
F0.0875
sg20
F0.0025662146168857645
sg21
F0.6338259441707718
sg22
F0.08887865530739121
sg23
F0.0085374347957626
sg24
F0.2081694799947447
sg25
F0.009357569882357721
sg26
F0.3483920571665485
sg27
F0.0
ssS'HAUG DAVID L'
p92
(dp93
g3
F0.034190299496421946
sg4
F0.0
sg5
F0.0
sg6
F0.0020763847300481284
sg7
F0.0
sg8
F0.0
sg9
F0.007575757575757576
sg10
F0.0
sg11
F0.0
sg12
F0.08497916289182823
sg13
F0.01461998930627997
sg14
F0.0
sg15
F0.00048760100306492065
sg16
F0.0
sg17
F0.032119119230626415
sg18
F0.0
sg19
F0.0
sg20
F0.04514957194733024
sg21
F0.011494252873563218
sg22
F0.3684210526315789
sg23
F0.15020627036436332
sg24
F0.0
sg25
F4.5867221847382405e-06
sg26
F0.8177028460553033
sg27
F0.0
ssS'ECHOLS JOHN B'
p94
(dp95
g3
F0.058772859793267955
sg4
F0.0
sg5
F0.04473288381009281
sg6
F0.09411486997460254
sg7
F0.0
sg8
F0.4343217695533555
sg9
F0.05018939393939394
sg10
F0.0
sg11
F0.0
sg12
F0.10726580902337379
sg13
F0.023198051184920254
sg14
F0.0
sg15
F0.002020061298411814
sg16
F0.005190772847436453
sg17
F0.12916121979805267
sg18
F0.014296545784732198
sg19
F0.024999999999999998
sg20
F0.02054447968907726
sg21
F0.009852216748768473
sg22
F0.14634146341463414
sg23
F0.027605436069871113
sg24
F0.16399881935608113
sg25
F0.025997773093269894
sg26
F0.6215710091819834
sg27
F0.017509935838611795
ssS'MENDELSOHN JOHN'
p96
(dp97
g3
F0.058772859793267955
sg4
F0.0
sg5
F0.0
sg6
F0.000646957768520259
sg7
F0.0
sg8
F0.0
sg9
F0.05018939393939394
sg10
F0.029605756900067517
sg11
F0.0
sg12
F0.10726580902337379
sg13
F9.756442348631714e-07
sg14
F0.0
sg15
F0.002020061298411814
sg16
F0.0
sg17
F0.12916121979805267
sg18
F0.0
sg19
F0.0
sg20
F0.0
sg21
F0.009852216748768473
sg22
F0.14634146341463414
sg23
F0.0
sg24
F0.09336265745668422
sg25
F1.4291260701921256e-06
sg26
F0.6215710091819834
sg27
F0.0
ssS'HICKERSON GARY J'
p98
(dp99
g3
F0.08368672144182347
sg4
F0.0
sg5
F0.3271900555496444
sg6
F0.43210221932742626
sg7
F0.0
sg8
F0.013453286933619206
sg9
F0.07575757575757576
sg10
F0.0
sg11
F0.0
sg12
F0.16271063598477986
sg13
F0.015235238471413615
sg14
F0.0
sg15
F0.001044859292281973
sg16
F0.00018687747526986468
sg17
F0.13942617666021923
sg18
F0.15715897875360185
sg19
F0.2125
sg20
F0.008981781702729123
sg21
F0.0016420361247947454
sg22
F0.037037037037037035
sg23
F0.029881123399523115
sg24
F0.19058400479456616
sg25
F0.020102357678524908
sg26
F0.6750738230900516
sg27
F0.0
ssS'CLINE KENNETH W'
p100
(dp101
g3
F0.058772859793267955
sg4
F0.0
sg5
F0.0
sg6
F0.0
sg7
F0.0
sg8
F0.0
sg9
F0.05018939393939394
sg10
F0.0
sg11
F0.18144358396461494
sg12
F0.10726580902337379
sg13
F0.004364597222186607
sg14
F0.0
sg15
F0.002020061298411814
sg16
F0.0
sg17
F0.12916121979805267
sg18
F0.0
sg19
F0.0
sg20
F0.0038590449805435047
sg21
F0.009852216748768473
sg22
F0.14634146341463414
sg23
F0.044851627462268215
sg24
F0.0
sg25
F0.0
sg26
F0.6215710091819834
sg27
F0.0
ssS'RICE KENNETH D'
p102
(dp103
g3
F0.05618870924993374
sg4
F0.0
sg5
F0.16958371035108902
sg6
F0.20523423805423083
sg7
F1.0
sg8
F0.31426134316366705
sg9
F0.07954545454545454
sg10
F1.0
sg11
F0.0
sg12
F0.1561877151657909
sg13
F0.1722627719230078
sg14
F0.0
sg15
F0.00041794371691278906
sg16
F0.016876792819580513
sg17
F0.21353003408957333
sg18
F0.6668560868560868
sg19
F0.21875
sg20
F0.459020631162508
sg21
F0.006568144499178982
sg22
F0.2222222222222222
sg23
F0.18618215497489649
sg24
F0.3785223593440947
sg25
F0.004876892714530628
sg26
F0.9527362437451756
sg27
F0.5762767471098494
ssS'HAYES ROBERT E'
p104
(dp105
g3
F0.02961834084283064
sg4
F0.001238682493671221
sg5
F0.0
sg6
F0.0
sg7
F0.0
sg8
F0.0
sg9
F0.030303030303030304
sg10
F0.0
sg11
F0.0
sg12
F0.00869722775865193
sg13
F0.00099817634293589
sg14
F0.0
sg15
F0.0
sg16
F0.0
sg17
F0.14606551840594395
sg18
F0.0
sg19
F0.0
sg20
F0.0030832368052846506
sg21
F0.0
sg22
F0.0
sg23
F0.010257494837652101
sg24
F0.0
sg25
F7.687346381621292e-05
sg26
F0.08224684207600638
sg27
F0.0
ssS'KOPPER MICHAEL J'
p106
(dp107
g3
F0.12046117148157963
sg4
F0.0
sg5
F0.14537962880845925
sg6
F0.5164034393673802
sg7
F1.0
sg8
F0.11712734047312628
sg9
F0.11742424242424243
sg10
F0.0
sg11
F0.0
sg12
F0.28755209277042937
sg13
F0.02250138187151097
sg14
F0.0
sg15
F0.0022638617999442743
sg16
F0.08759900958799212
sg17
F0.15214184397163122
sg18
F0.05804231200542459
sg19
F0.09999999999999999
sg20
F0.020057634606078206
sg21
F0.025451559934318555
sg22
F0.34831460674157305
sg23
F0.06672892691042098
sg24
F0.20184781571876198
sg25
F0.025614303806111315
sg26
F0.843626683992389
sg27
F0.0
ssS'LEFF DANIEL P'
p108
(dp109
g3
F0.18320964749536175
sg4
F0.0
sg5
F0.1489034435200946
sg6
F0.0
sg7
F0.0
sg8
F0.2696369246986746
sg9
F0.1268939393939394
sg10
F0.0
sg11
F0.0
sg12
F0.4837832940750136
sg13
F0.018135182746965767
sg14
F0.0
sg15
F0.0035525215937587075
sg16
F0.0002975946571575376
sg17
F0.10923858135922918
sg18
F0.07223656033442583
sg19
F0.125
sg20
F0.0073412223047171704
sg21
F0.022988505747126436
sg22
F0.2222222222222222
sg23
F0.024423213216586116
sg24
F0.24633883400614437
sg25
F0.025726470890106934
sg26
F0.9447486838910212
sg27
F0.0
ssS'LAVORATO JOHN J'
p110
(dp111
g3
F0.47720646700238534
sg4
F0.0
sg5
F0.9611120239997127
sg6
F0.216542884994514
sg7
F0.0
sg8
F0.3955701307217234
sg9
F1.0
sg10
F0.0
sg11
F0.0
sg12
F0.7175212900887842
sg13
F0.10055472692083733
sg14
F0.0
sg15
F0.1792281972694344
sg16
F0.00014981086860476754
sg17
F0.33466892163213385
sg18
F0.14767631101831102
sg19
F1.0
sg20
F0.10521555270183036
sg21
F0.6748768472906403
sg22
F0.15899419729206962
sg23
F0.06829493959162139
sg24
F0.30531883684976846
sg25
F0.10067379142018949
sg26
F0.53667608289348
sg27
F0.12108269780610348
ssS'BERBERIAN DAVID'
p112
(dp113
g3
F0.058772859793267955
sg4
F0.0
sg5
F0.0
sg6
F0.05198393096785757
sg7
F0.0
sg8
F0.0
sg9
F0.05018939393939394
sg10
F0.0
sg11
F0.0
sg12
F0.10726580902337379
sg13
F0.016516786727051046
sg14
F0.0
sg15
F0.002020061298411814
sg16
F0.0
sg17
F0.12916121979805267
sg18
F0.0
sg19
F0.0
sg20
F0.050776054560532365
sg21
F0.009852216748768473
sg22
F0.14634146341463414
sg23
F0.05888348586551109
sg24
F0.19489803447984175
sg25
F0.002206203714601863
sg26
F0.6215710091819834
sg27
F0.04729177361007726
ssS'DETMERING TIMOTHY J'
p114
(dp115
g3
F0.058772859793267955
sg4
F0.13619236998968412
sg5
F0.08229801363984333
sg6
F0.22842417698666306
sg7
F0.0
sg8
F0.08078171831569504
sg9
F0.05018939393939394
sg10
F0.22122020804785775
sg11
F0.12097109222918882
sg12
F0.10726580902337379
sg13
F0.02133859193270502
sg14
F0.0
sg15
F0.002020061298411814
sg16
F0.00010666302178367792
sg17
F0.12916121979805267
sg18
F0.06790169986902798
sg19
F0.053125
sg20
F0.04129223741000778
sg21
F0.009852216748768473
sg22
F0.14634146341463414
sg23
F0.021343620860857837
sg24
F0.18942495802054968
sg25
F0.01163176330412325
sg26
F0.6215710091819834
sg27
F0.05903814863604646
ssS'WAKEHAM JOHN'
p116
(dp117
g3
F0.058772859793267955
sg4
F0.0
sg5
F0.0
sg6
F0.4536266791395462
sg7
F0.0
sg8
F0.0
sg9
F0.05018939393939394
sg10
F0.0
sg11
F0.0
sg12
F0.10726580902337379
sg13
F0.0006840914134084858
sg14
F0.0
sg15
F0.002020061298411814
sg16
F0.0
sg17
F0.12916121979805267
sg18
F0.0
sg19
F0.0
sg20
F0.0
sg21
F0.009852216748768473
sg22
F0.14634146341463414
sg23
F0.0
sg24
F0.09835519744289804
sg25
F0.0020574683844723405
sg26
F0.6215710091819834
sg27
F0.0
ssS'POWERS WILLIAM'
p118
(dp119
g3
F0.03949112112377418
sg4
F0.0
sg5
F0.0
sg6
F0.0
sg7
F0.0
sg8
F0.0
sg9
F0.0
sg10
F0.004993742127722232
sg11
F0.0
sg12
F0.001811922449719152
sg13
F0.0
sg14
F0.0
sg15
F0.0009752020061298412
sg16
F0.0
sg17
F0.0
sg18
F0.0
sg19
F0.0
sg20
F0.0
sg21
F0.0
sg22
F0.0
sg23
F0.0
sg24
F0.015747918125223845
sg25
F0.0
sg26
F0.0
sg27
F0.0
ssS'GOLD JOSEPH'
p120
(dp121
g3
F0.058772859793267955
sg4
F0.0
sg5
F0.1120319977183702
sg6
F0.0
sg7
F0.0
sg8
F0.05923795738124326
sg9
F0.05018939393939394
sg10
F0.0
sg11
F0.0
sg12
F0.10726580902337379
sg13
F0.018139757727364383
sg14
F0.0
sg15
F0.002020061298411814
sg16
F0.07908392198290129
sg17
F0.12916121979805267
sg18
F0.06723000242667235
sg19
F0.09375
sg20
F0.0178702831626535
sg21
F0.009852216748768473
sg22
F0.14634146341463414
sg23
F0.029881123399523115
sg24
F0.24555953702920474
sg25
F0.02073172355607161
sg26
F0.6215710091819834
sg27
F0.01270845813299397
ssS'BANNANTINE JAMES M'
p122
(dp123
g3
F0.033726477604028623
sg4
F0.0
sg5
F0.0
sg6
F0.24611060355039935
sg7
F0.0
sg8
F0.0
sg9
F0.07386363636363637
sg10
F0.0014564605611368155
sg11
F0.2150985413651041
sg12
F0.08389200942199673
sg13
F0.04432940441619695
sg14
F0.0
sg15
F0.0011841738645862357
sg16
F0.08345034894252543
sg17
F0.31703443350124055
sg18
F0.0
sg19
F0.0
sg20
F0.10677008087830771
sg21
F0.0
sg22
F0.0
sg23
F0.1190616740869984
sg24
F0.0004292432540418157
sg25
F0.008847033906296046
sg26
F0.8172604647965787
sg27
F0.11779759420414072
ssS'DUNCAN JOHN H'
p124
(dp125
g3
F0.058772859793267955
sg4
F0.0
sg5
F0.0
sg6
F0.0
sg7
F0.0
sg8
F0.0
sg9
F0.05018939393939394
sg10
F0.007133917325317474
sg11
F0.0
sg12
F0.10726580902337379
sg13
F0.0024506469210161083
sg14
F0.0
sg15
F0.002020061298411814
sg16
F0.0
sg17
F0.12916121979805267
sg18
F0.0
sg19
F0.0
sg20
F0.007569729374080815
sg21
F0.009852216748768473
sg22
F0.14634146341463414
sg23
F0.0
sg24
F0.09223060711373957
sg25
F0.0007482826853468121
sg26
F0.6215710091819834
sg27
F0.0108229254686334
ssS'SHAPIRO RICHARD S'
p126
(dp127
g3
F1.0
sg4
F0.0
sg5
F0.09846704772036036
sg6
F0.6022258844306116
sg7
F0.0
sg8
F0.0
sg9
F0.14015151515151517
sg10
F0.0
sg11
F0.0
sg12
F0.8198949084979162
sg13
F0.011704256733819052
sg14
F0.0
sg15
F0.08379771524101422
sg16
F6.805197317420175e-05
sg17
F0.02247532664890457
sg18
F0.11828827942876667
sg19
F0.08125
sg20
F0.02009772820967623
sg21
F0.10673234811165845
sg22
F0.053497942386831275
sg23
F0.025685669950887748
sg24
F0.24213638956929892
sg25
F0.010211955522159068
sg26
F0.2853722022600453
sg27
F0.017696232812582972
ssS'SHERRIFF JOHN R'
p128
(dp129
g3
F0.20739464617015635
sg4
F0.0
sg5
F0.14259663014780943
sg6
F0.0
sg7
F0.0
sg8
F0.10775028889691327
sg9
F0.05303030303030303
sg10
F0.0
sg11
F0.0
sg12
F0.3806849066859938
sg13
F0.04637995150243906
sg14
F0.0
sg15
F0.005572582892170521
sg16
F0.1787871091994781
sg17
F0.04042352909759729
sg18
F0.06658735042861216
sg19
F0.1875
sg20
F0.06371364346030972
sg21
F0.03776683087027914
sg22
F0.25
sg23
F0.08762029615300249
sg24
F0.385850990499056
sg25
F0.04186362172431148
sg26
F0.6527389990134561
sg27
F0.05343942818387031
ssS'SHELBY REX'
p130
(dp131
g3
F0.011131725417439703
sg4
F0.0
sg5
F0.03848277227568571
sg6
F0.10003365928930816
sg7
F1.0
sg8
F0.0
sg9
F0.02462121212121212
sg10
F0.0011890813397839165
sg11
F0.0
sg12
F0.016126109802500455
sg13
F0.028279338203903177
sg14
F0.0
sg15
F0.0018807467261075508
sg16
F0.15186922360613872
sg17
F0.265839243498818
sg18
F0.019208154825917322
sg19
F0.024999999999999998
sg20
F0.050776054560532365
sg21
F0.022988505747126436
sg22
F0.358974358974359
sg23
F0.05888348586551109
sg24
F0.19063439813256686
sg25
F0.019350029021398294
sg26
F0.39283678955316054
sg27
F0.04729177361007726
ssS'LEMAISTRE CHARLES'
p132
(dp133
g3
F0.058772859793267955
sg4
F0.0
sg5
F0.0
sg6
F0.0
sg7
F0.0
sg8
F0.0
sg9
F0.05018939393939394
sg10
F0.007133917325317474
sg11
F0.0
sg12
F0.10726580902337379
sg13
F0.0027217705432556524
sg14
F0.0
sg15
F0.002020061298411814
sg16
F0.0
sg17
F0.12916121979805267
sg18
F0.0
sg19
F0.0
sg20
F0.008407194954974415
sg21
F0.009852216748768473
sg22
F0.14634146341463414
sg23
F0.0
sg24
F0.10122941747101033
sg25
F0.0008448452576570909
sg26
F0.6215710091819834
sg27
F0.012020303487931193
ssS'DEFFNER JOSEPH M'
p134
(dp135
g3
F0.04353299761463027
sg4
F0.0
sg5
F0.11865376759239035
sg6
F0.18196124373259664
sg7
F0.0
sg8
F0.06517409415804382
sg9
F0.2178030303030303
sg10
F0.0
sg11
F0.0
sg12
F0.09965573473455336
sg13
F0.007658405120038555
sg14
F0.0
sg15
F0.004318751741432154
sg16
F0.0024665703127948616
sg17
F0.7410677036772156
sg18
F0.09553873788006277
sg19
F0.075
sg20
F0.0032419211388749983
sg21
F0.006568144499178982
sg22
F0.05405405405405406
sg23
F0.009608179115486339
sg24
F0.1854843789651008
sg25
F0.01167102564602461
sg26
F0.7679655248683224
sg27
F0.0005059335542539643
ssS'KISHKILL JOSEPH G'
p136
(dp137
g3
F0.058772859793267955
sg4
F0.0
sg5
F0.0
sg6
F0.5085394054108401
sg7
F0.0
sg8
F0.0
sg9
F0.05018939393939394
sg10
F0.014565176324754181
sg11
F0.0
sg12
F0.10726580902337379
sg13
F0.010653230797431149
sg14
F0.0
sg15
F0.002020061298411814
sg16
F0.04491980436940001
sg17
F0.12916121979805267
sg18
F0.0
sg19
F0.0
sg20
F0.02106178695134632
sg21
F0.009852216748768473
sg22
F0.14634146341463414
sg23
F0.07006960041306912
sg24
F0.15680067095130024
sg25
F0.006806657097122626
sg26
F0.6215710091819834
sg27
F0.0
ssS'WHALLEY LAWRENCE G'
p138
(dp139
g3
F0.3950437317784256
sg4
F0.0
sg5
F0.2396038242304619
sg6
F0.2528293474032077
sg7
F0.0
sg8
F0.15709967322484364
sg9
F0.3522727272727273
sg10
F0.0
sg11
F0.0
sg12
F0.7099112157999637
sg13
F0.06754587418214562
sg14
F0.0
sg15
F0.03789356366675954
sg16
F0.029057323796790435
sg17
F0.14218273340096788
sg18
F0.12343236045009656
sg19
F0.375
sg20
F0.12378593656479227
sg21
F0.03940886699507389
sg22
F0.04316546762589928
sg23
F0.1894211463806254
sg24
F0.45926688491781387
sg25
F0.04516785776116798
sg26
F0.6439910210639158
sg27
F0.09557829561938053
ssS'PIRO JIM'
p140
(dp141
g3
F6.626027034190279e-05
sg4
F0.0
sg5
F0.0
sg6
F0.0
sg7
F0.0
sg8
F0.0
sg9
F0.0
sg10
F0.0
sg11
F0.0
sg12
F0.0001811922449719152
sg13
F0.00031183699247275314
sg14
F0.0
sg15
F0.00027862914460852607
sg16
F0.0
sg17
F0.0
sg18
F0.0
sg19
F0.0
sg20
F0.0009632238824788671
sg21
F0.0016420361247947454
sg22
F0.0625
sg23
F0.0032045102682659588
sg24
F0.0
sg25
F0.0
sg26
F0.033932107656648856
sg27
F0.0
ssS'MCCONNELL MICHAEL S'
p142
(dp143
g3
F0.21680360455870656
sg4
F0.0
sg5
F0.12283075804392145
sg6
F0.3556694045802862
sg7
F0.0
sg8
F0.10775028889691327
sg9
F0.17424242424242425
sg10
F0.0
sg11
F0.0
sg12
F0.39626743975357853
sg13
F0.031890415059427385
sg14
F0.0
sg15
F0.19016439119531905
sg16
F5.2124915622792834e-05
sg17
F0.1271546627637205
sg18
F0.10074415157646811
sg19
F0.13749999999999998
sg20
F0.06314954335849354
sg21
F0.3185550082101806
sg22
F0.07075127644055434
sg23
F0.10014223299846209
sg24
F0.3284907735197407
sg25
F0.02029131132002166
sg26
F0.6503850440792559
sg27
F0.04725142236676986
ssS'DELAINEY DAVID W'
p144
(dp145
g3
F0.20116618075801748
sg4
F0.0
sg5
F0.3348783040712105
sg6
F0.3766955320571946
sg7
F1.0
sg8
F0.2516757575745797
sg9
F0.125
sg10
F0.0
sg11
F0.0
sg12
F0.3795977532161623
sg13
F0.05271825723518153
sg14
F0.0
sg15
F0.21294232376706607
sg16
F0.00016033237935084981
sg17
F0.09817982953959181
sg18
F0.12160205426350873
sg19
F0.375
sg20
F0.07359509793488823
sg21
F1.0
sg22
F0.198435972629521
sg23
F0.08963388619219446
sg24
F0.3286032586492066
sg25
F0.0458477065515185
sg26
F0.6711709307910267
sg27
F0.06670220642694573
ssS'SULLIVAN-SHAKLOVITZ COLLEEN'
p146
(dp147
g3
F0.058772859793267955
sg4
F0.028316988201319747
sg5
F0.025041142929893793
sg6
F0.0
sg7
F0.0
sg8
F0.10775028889691327
sg9
F0.05018939393939394
sg10
F0.0
sg11
F0.0
sg12
F0.10726580902337379
sg13
F0.013296178515576943
sg14
F0.0
sg15
F0.002020061298411814
sg16
F1.563747468683785e-05
sg17
F0.12916121979805267
sg18
F0.019257868734131448
sg19
F0.012499999999999999
sg20
F0.027741250991293476
sg21
F0.009852216748768473
sg22
F0.14634146341463414
sg23
F0.0
sg24
F0.14648173511461784
sg25
F0.009650038601371093
sg26
F0.6215710091819834
sg27
F0.03966343802375098
ssS'WROBEL BRUCE'
p148
(dp149
g3
F0.058772859793267955
sg4
F0.0
sg5
F0.0
sg6
F0.0
sg7
F0.0
sg8
F0.0
sg9
F0.05018939393939394
sg10
F0.0
sg11
F0.0
sg12
F0.10726580902337379
sg13
F0.0009171715026791423
sg14
F0.0
sg15
F0.002020061298411814
sg16
F0.0
sg17
F0.12916121979805267
sg18
F0.0
sg19
F0.0
sg20
F0.0028330233969491967
sg21
F0.009852216748768473
sg22
F0.14634146341463414
sg23
F0.0
sg24
F0.0
sg25
F0.0
sg26
F0.6215710091819834
sg27
F0.004050554459854647
ssS'LINDHOLM TOD A'
p150
(dp151
g3
F0.058772859793267955
sg4
F0.03175281119155312
sg5
F0.03447706944590502
sg6
F0.2523441290768175
sg7
F0.0
sg8
F0.03401073650930126
sg9
F0.05018939393939394
sg10
F0.0
sg11
F0.0
sg12
F0.10726580902337379
sg13
F0.023069800113371182
sg14
F0.0
sg15
F0.002020061298411814
sg16
F0.00025386764460730586
sg17
F0.12916121979805267
sg18
F0.043944989985412915
sg19
F0.024999999999999998
sg20
F0.06239468811269247
sg21
F0.009852216748768473
sg22
F0.14634146341463414
sg23
F0.03487723021490623
sg24
F0.21278317006491743
sg25
F0.008457809489827774
sg26
F0.6215710091819834
sg27
F0.0742206969620463
ssS'MEYER JEROME J'
p152
(dp153
g3
F0.058772859793267955
sg4
F0.0
sg5
F0.0
sg6
F0.009402744324912683
sg7
F0.0
sg8
F0.0
sg9
F0.05018939393939394
sg10
F0.010942287750264955
sg11
F0.0
sg12
F0.10726580902337379
sg13
F1.41798023593965e-05
sg14
F0.0
sg15
F0.002020061298411814
sg16
F0.0
sg17
F0.12916121979805267
sg18
F0.0
sg19
F0.0
sg20
F0.0
sg21
F0.009852216748768473
sg22
F0.14634146341463414
sg23
F0.0
sg24
F0.03450683819599049
sg25
F2.077060930394096e-05
sg26
F0.6215710091819834
sg27
F0.0
ssS'LAY KENNETH L'
p154
(dp155
g3
F0.279353299761463
sg4
F0.031571699971526326
sg5
F0.2660882835913525
sg6
F0.4363992428845574
sg7
F1.0
sg8
F0.6996494367627687
sg9
F0.23295454545454547
sg10
F0.08560700790380969
sg11
F0.0
sg12
F0.4364921181373437
sg13
F1.0
sg14
F1.0
sg15
F0.0016717748676511562
sg16
F1.0
sg17
F0.13244344747573833
sg18
F0.013008742366515417
sg19
F0.875
sg20
F1.0
sg21
F0.026272577996715927
sg22
F0.4444444444444444
sg23
F0.9999999999999999
sg24
F0.9649613321118948
sg25
F1.0
sg26
F0.5554346901566164
sg27
F1.0
ssS'BUTTS ROBERT H'
p156
(dp157
g3
F0.058772859793267955
sg4
F0.0
sg5
F0.11690027201926026
sg6
F0.04113427433632187
sg7
F0.0
sg8
F0.03401073650930126
sg9
F0.05018939393939394
sg10
F0.021401751975952423
sg11
F0.0
sg12
F0.10726580902337379
sg13
F0.009905986196387601
sg14
F0.0
sg15
F0.002020061298411814
sg16
F0.014542465348273106
sg17
F0.12916121979805267
sg18
F0.11351293113617525
sg19
F0.09375
sg20
F0.008503733184866863
sg21
F0.009852216748768473
sg22
F0.14634146341463414
sg23
F0.028290723273358732
sg24
F0.23533328893920225
sg25
F0.012278722882344889
sg26
F0.6215710091819834
sg27
F0.0
ssS'OLSON CINDY K'
p158
(dp159
g3
F0.07467532467532466
sg4
F0.012092130219589574
sg5
F0.09289983389162709
sg6
F0.278851912241053
sg7
F0.0
sg8
F0.019434706576743576
sg9
F0.03787878787878788
sg10
F0.0
sg11
F0.0
sg12
F0.15473817720601557
sg13
F0.02321457121500517
sg14
F0.0
sg15
F0.0027862914460852605
sg16
F9.38248481210271e-05
sg17
F0.07772067280046005
sg18
F0.10922041198374341
sg19
F0.09375
sg20
F0.05308000121685818
sg21
F0.02463054187192118
sg22
F0.28846153846153844
sg23
F0.06569225727074413
sg24
F0.296131051474995
sg25
F0.012761294337465506
sg26
F0.7169501963953866
sg27
F0.047659709405834055
ssS'MCDONALD REBECCA'
p160
(dp161
g3
F0.0554598462761728
sg4
F0.0
sg5
F0.0
sg6
F0.0
sg7
F0.0
sg8
F0.0
sg9
F0.10227272727272728
sg10
F0.0
sg11
F0.0
sg12
F0.13009603188983512
sg13
F0.011149807344213399
sg14
F0.0
sg15
F6.965728615213149e-05
sg16
F0.0
sg17
F0.2779166071683565
sg18
F0.0
sg19
F0.0
sg20
F0.03444030367860544
sg21
F0.0016420361247947454
sg22
F0.07692307692307693
sg23
F0.0632762743896466
sg24
F0.0
sg25
F0.0
sg26
F0.8007910331432306
sg27
F0.022047645676722374
ssS'CUMBERLAND MICHAEL S'
p162
(dp163
g3
F0.058772859793267955
sg4
F0.0
sg5
F0.07164754631556602
sg6
F0.09767313770146396
sg7
F0.0
sg8
F0.05344544308604483
sg9
F0.05018939393939394
sg10
F0.0
sg11
F0.0
sg12
F0.10726580902337379
sg13
F0.005478090758368858
sg14
F0.0
sg15
F0.002020061298411814
sg16
F6.882419414639128e-05
sg17
F0.12916121979805267
sg18
F0.07741481796863525
sg19
F0.040625
sg20
F0.004234161468853704
sg21
F0.009852216748768473
sg22
F0.14634146341463414
sg23
F0.014086459182801105
sg24
F0.16638710362490078
sg25
F0.007801830967352358
sg26
F0.6215710091819834
sg27
F0.0
ssS'GAHN ROBERT S'
p164
(dp165
g3
F0.058772859793267955
sg4
F0.011377332157043967
sg5
F0.1082412150616534
sg6
F0.21891652059117953
sg7
F0.0
sg8
F0.0
sg9
F0.05018939393939394
sg10
F0.0002973416741192323
sg11
F0.0
sg12
F0.10726580902337379
sg13
F0.006296227779018612
sg14
F0.0
sg15
F0.002020061298411814
sg16
F0.007388899844773931
sg17
F0.12916121979805267
sg18
F0.10895902207268977
sg19
F0.06373374999999999
sg20
F0.006487609325320151
sg21
F0.009852216748768473
sg22
F0.14634146341463414
sg23
F0.015944647003250437
sg24
F0.17278435790788457
sg25
F0.00869628041840524
sg26
F0.6215710091819834
sg27
F0.002423316334183291
ssS'BADUM JAMES P'
p166
(dp167
g3
F0.058772859793267955
sg4
F0.027848183986594034
sg5
F0.0
sg6
F0.015238478250416371
sg7
F0.0
sg8
F0.0
sg9
F0.05018939393939394
sg10
F0.0
sg11
F0.0
sg12
F0.10726580902337379
sg13
F0.0017225592263679142
sg14
F0.0
sg15
F0.002020061298411814
sg16
F0.0
sg17
F0.12916121979805267
sg18
F0.0
sg19
F0.0
sg20
F0.005249777856186667
sg21
F0.009852216748768473
sg22
F0.14634146341463414
sg23
F0.0
sg24
F0.0
sg25
F0.0017619386319167323
sg26
F0.6215710091819834
sg27
F0.007505942637650726
ssS'HERMANN ROBERT J'
p168
(dp169
g3
F0.058772859793267955
sg4
F0.0
sg5
F0.10863047111658769
sg6
F0.21138470819144706
sg7
F0.0
sg8
F0.029152059865115366
sg9
F0.05018939393939394
sg10
F0.07989987404355571
sg11
F0.0
sg12
F0.10726580902337379
sg13
F0.01307185285565695
sg14
F0.0
sg15
F0.002020061298411814
sg16
F0.04019805923494717
sg17
F0.12916121979805267
sg18
F0.10383222822625625
sg19
F0.0875
sg20
F0.013604783930499968
sg21
F0.009852216748768473
sg22
F0.14634146341463414
sg23
F0.03255940679978869
sg24
F0.2363654524871812
sg25
F0.012528617163226658
sg26
F0.6215710091819834
sg27
F0.005458772092451278
ssS'FALLON JAMES B'
p170
(dp171
g3
F0.11250993904055127
sg4
F0.0
sg5
F0.33456441200779263
sg6
F0.41931606072660355
sg7
F0.0
sg8
F0.07275324102884227
sg9
F0.07954545454545454
sg10
F0.0
sg11
F0.0
sg12
F0.2902699764450081
sg13
F0.037602851607695914
sg14
F0.0
sg15
F0.004388409027584286
sg16
F0.03875400601695276
sg17
F0.11011092925986544
sg18
F0.13087382197148975
sg19
F0.3125
sg20
F0.04749328640854531
sg21
F0.06075533661740558
sg22
F0.49333333333333335
sg23
F0.09430774001953976
sg24
F0.27409296491003887
sg25
F0.03549968470871702
sg26
F0.9112859854512628
sg27
F0.027374126247103794
ssS'GATHMANN WILLIAM D'
p172
(dp173
g3
F0.058772859793267955
sg4
F0.0
sg5
F0.0
sg6
F0.0
sg7
F0.0
sg8
F0.0
sg9
F0.05018939393939394
sg10
F0.0
sg11
F0.02780544367611317
sg12
F0.10726580902337379
sg13
F0.013301584112013346
sg14
F0.0
sg15
F0.002020061298411814
sg16
F0.0
sg17
F0.12916121979805267
sg18
F0.0
sg19
F0.0
sg20
F0.03961223600581534
sg21
F0.009852216748768473
sg22
F0.14634146341463414
sg23
F0.017885006964647822
sg24
F0.0
sg25
F0.0
sg26
F0.6215710091819834
sg27
F0.05105818078661284
ssS'HORTON STANLEY C'
p174
(dp175
g3
F0.15193479989398356
sg4
F0.48729809755422054
sg5
F0.0
sg6
F0.0
sg7
F0.0
sg8
F0.0
sg9
F0.08333333333333334
sg10
F0.0
sg11
F0.0
sg12
F0.19423808660989308
sg13
F0.04783720801102273
sg14
F0.0
sg15
F0.07390638060741155
sg16
F0.0
sg17
F0.08614757808963333
sg18
F0.0
sg19
F0.0
sg20
F0.14776290927495575
sg21
F0.02463054187192118
sg22
F0.013979496738117428
sg23
F0.13860733056788738
sg24
F0.0
sg25
F0.030242045771566962
sg26
F0.44633547071761254
sg27
F0.15169764609595607
ssS'BOWEN JR RAYMOND M'
p176
(dp177
g3
F0.11933474688576728
sg4
F0.0
sg5
F0.19751660894002518
sg6
F0.2881016597963832
sg7
F1.0
sg8
F0.1893509857477523
sg9
F0.26515151515151514
sg10
F0.00023770212527957822
sg11
F0.0
sg12
F0.2882768617503171
sg13
F0.0174289349803588
sg14
F0.0
sg15
F0.001044859292281973
sg16
F0.0001564712744899022
sg17
F0.3466894166685753
sg18
F0.09732352058687686
sg19
F0.16874999999999998
sg20
F0.005132449596190827
sg21
F0.02463054187192118
sg22
F0.5555555555555556
sg23
F0.017074937334427876
sg24
F0.25070775643459936
sg25
F0.025778238085122473
sg26
F0.8537072377558947
sg27
F0.0
ssS'GILLIS JOHN'
p178
(dp179
g3
F0.058772859793267955
sg4
F0.0
sg5
F0.0
sg6
F0.0
sg7
F0.0
sg8
F0.0
sg9
F0.05018939393939394
sg10
F0.0
sg11
F0.0
sg12
F0.10726580902337379
sg13
F0.000564561810256195
sg14
F0.0
sg15
F0.002020061298411814
sg16
F0.0
sg17
F0.12916121979805267
sg18
F0.0
sg19
F0.0
sg20
F0.0017438579511113788
sg21
F0.009852216748768473
sg22
F0.14634146341463414
sg23
F0.005137486253271473
sg24
F0.0
sg25
F0.0
sg26
F0.6215710091819834
sg27
F0.00028539916171893266
ssS'FITZGERALD JAY L'
p180
(dp181
g3
F0.058242777630532726
sg4
F0.0
sg5
F0.07163495492223791
sg6
F0.1043437968552607
sg7
F0.0
sg8
F0.10813781694605354
sg9
F0.001893939393939394
sg10
F0.0
sg11
F0.0
sg12
F0.13063960862475085
sg13
F0.01870162333159315
sg14
F0.0
sg15
F0.00027862914460852607
sg16
F0.02755033456956258
sg17
F0.004915666484815422
sg18
F0.04760843910962969
sg19
F0.04375
sg20
F0.033012287213227395
sg21
F0.013136288998357963
sg22
F0.5
sg23
F0.06481471570945718
sg24
F0.17921760743229745
sg25
F0.013662223137120406
sg26
F0.76728037257809
sg27
F0.0193447528710521
ssS'MORAN MICHAEL P'
p182
(dp183
g3
F0.04075006626027034
sg4
F0.0
sg5
F0.0
sg6
F0.0
sg7
F0.0
sg8
F0.0
sg9
F0.0
sg10
F0.0
sg11
F0.0
sg12
F0.022649030621489402
sg13
F0.0014578036604180852
sg14
F0.0
sg15
F0.00048760100306492065
sg16
F0.0
sg17
F0.0
sg18
F0.0
sg19
F0.0
sg20
F0.004502965766008354
sg21
F0.0
sg22
F0.0
sg23
F0.010947388558521806
sg24
F0.0
sg25
F0.0
sg26
F0.1736027646146259
sg27
F0.0017333857685997687
ssS'REDMOND BRIAN L'
p184
(dp185
g3
F0.10694407633183142
sg4
F0.0
sg5
F0.0
sg6
F0.0642105585256357
sg7
F0.0
sg8
F0.0
sg9
F0.38636363636363635
sg10
F0.0
sg11
F0.0
sg12
F0.19224497191520204
sg13
F0.05211135378357043
sg14
F0.0
sg15
F0.014558372805795488
sg16
F0.0
sg17
F0.5617097673707934
sg18
F0.0
sg19
F0.0
sg20
F0.16066608568611926
sg21
F0.08045977011494253
sg22
F0.22171945701357465
sg23
F0.025829352647467153
sg24
F0.08714447949981012
sg25
F0.001076952712719308
sg26
F0.6286008747465391
sg27
F0.218614040183084
ssS'BAZELIDES PHILIP J'
p186
(dp187
g3
F0.058772859793267955
sg4
F0.10653416295964363
sg5
F0.0
sg6
F0.0
sg7
F0.0
sg8
F0.018220037415697103
sg9
F0.05018939393939394
sg10
F0.0
sg11
F0.0
sg12
F0.10726580902337379
sg13
F0.01116891810527332
sg14
F0.0
sg15
F0.002020061298411814
sg16
F8.436514121170544e-05
sg17
F0.12916121979805267
sg18
F0.0
sg19
F0.0
sg20
F0.03257256076848422
sg21
F0.009852216748768473
sg22
F0.14634146341463414
sg23
F0.0
sg24
F0.0727265855453909
sg25
F0.008305694469667392
sg26
F0.6215710091819834
sg27
F0.04657107012661789
ssS'BELDEN TIMOTHY N'
p188
(dp189
g3
F0.5257089848926583
sg4
F0.3335951977519803
sg5
F1.0
sg6
F0.07586454103154794
sg7
F1.0
sg8
F0.0
sg9
F0.4318181818181818
sg10
F0.6661463662964069
sg11
F0.0
sg12
F1.0
sg13
F0.04343434312138085
sg14
F0.0
sg15
F0.032878239063806075
sg16
F0.020338176799798525
sg17
F0.1312780069067062
sg18
F0.18365226442805738
sg19
F0.656249875
sg20
F0.02261664092653243
sg21
F0.17733990147783252
sg22
F0.2231404958677686
sg23
F0.010674181432022638
sg24
F0.1925736417645587
sg25
F0.05312515446993989
sg26
F0.6843171809057993
sg27
F0.027749078384590085
ssS'DIMICHELE RICHARD G'
p190
(dp191
g3
F0.058772859793267955
sg4
F0.0
sg5
F0.155112570017854
sg6
F0.15654629463680753
sg7
F0.0
sg8
F0.13504439081329195
sg9
F0.05018939393939394
sg10
F0.0
sg11
F0.0
sg12
F0.10726580902337379
sg13
F0.068711360326979
sg14
F0.0
sg15
F0.002020061298411814
sg16
F0.036167837981090044
sg17
F0.12916121979805267
sg18
F0.08126790338397621
sg19
F0.125
sg20
F0.16937016471446045
sg21
F0.009852216748768473
sg22
F0.14634146341463414
sg23
F0.0085374347957626
sg24
F0.23647793761664707
sg25
F0.022867475217915895
sg26
F0.6215710091819834
sg27
F0.23849025910505717
ssS'DURAN WILLIAM D'
p192
(dp193
g3
F0.05612244897959183
sg4
F0.0
sg5
F0.14509944154210347
sg6
F0.11271490581956
sg7
F0.0
sg8
F0.21479587533335381
sg9
F0.20075757575757577
sg10
F0.0
sg11
F0.0
sg12
F0.10817177024823338
sg13
F0.02322745894797245
sg14
F0.0
sg15
F0.0
sg16
F0.0001513553105491466
sg17
F0.5395052720768218
sg18
F0.06895502380732856
sg19
F0.09375
sg20
F0.03341289745049886
sg21
F0.0049261083743842365
sg22
F0.25
sg23
F0.012806186065095239
sg24
F0.18959773517940928
sg25
F0.020213085980193102
sg26
F0.6555294874574535
sg27
F0.04226891722184077
ssS'THORN TERENCE H'
p194
(dp195
g3
F0.013848396501457725
sg4
F0.0025806792915501657
sg5
F0.0
sg6
F0.20171531235383347
sg7
F0.0
sg8
F0.03886941315348715
sg9
F0.0
sg10
F0.0
sg11
F0.0
sg12
F0.012864649393005979
sg13
F0.03619488490954516
sg14
F0.0
sg15
F0.002020061298411814
sg16
F0.04118148264303052
sg17
F0.0
sg18
F0.0
sg19
F0.0
sg20
F0.09810198224486633
sg21
F0.0
sg22
F0.0
sg23
F0.02474783720621766
sg24
F0.1998572788677337
sg25
F0.00880122462199205
sg26
F0.2605489508515848
sg27
F0.12962694256591517
ssS'FASTOW ANDREW S'
p196
(dp197
g3
F0.12046117148157963
sg4
F0.0
sg5
F0.12024161367831794
sg6
F0.24444949576636085
sg7
F1.0
sg8
F0.3373971952608857
sg9
F0.11742424242424243
sg10
F0.39552007113371646
sg11
F0.0
sg12
F0.28755209277042937
sg13
F0.0340410975235585
sg14
F0.0
sg15
F0.0022638617999442743
sg16
F0.02678293997844924
sg17
F0.15214184397163122
sg18
F0.10321060238723949
sg19
F0.1625
sg20
F0.03653856953760082
sg21
F0.025451559934318555
sg22
F0.34831460674157305
sg23
F0.12155867747969845
sg24
F0.3965757726828513
sg25
F0.023407568997361745
sg26
F0.843626683992389
sg27
F0.0
ssS'FOY JOE'
p198
(dp199
g3
F0.0
sg4
F0.02827995686938987
sg5
F0.0
sg6
F0.0
sg7
F0.0
sg8
F0.0
sg9
F0.0
sg10
F0.0
sg11
F0.0
sg12
F0.0
sg13
F0.0022639824469999894
sg14
F0.0
sg15
F6.965728615213149e-05
sg16
F0.0
sg17
F0.0
sg18
F0.0
sg19
F0.0
sg20
F0.006993147109234891
sg21
F0.0
sg22
F0.0
sg23
F0.0
sg24
F0.0
sg25
F0.0017550730330254715
sg26
F0.01700399655264219
sg27
F0.009998548985594198
ssS'CALGER CHRISTOPHER F'
p200
(dp201
g3
F0.1683673469387755
sg4
F0.0
sg5
F0.21213358048168224
sg6
F0.15657252265445026
sg7
F1.0
sg8
F0.07293923117078172
sg9
F0.3768939393939394
sg10
F0.07490613191583348
sg11
F0.0
sg12
F0.3960862475086066
sg13
F0.011784430958038012
sg14
F0.0
sg15
F0.00919476177208136
sg16
F4.691242406051355e-05
sg17
F0.35242944654644326
sg18
F0.14675091416218863
sg19
F0.15625
sg20
F0.0025662146168857645
sg21
F0.041050903119868636
sg22
F0.1736111111111111
sg23
F0.0085374347957626
sg24
F0.21614152609025086
sg25
F0.015829473510052303
sg26
F0.8382537318087891
sg27
F0.0
ssS'LEWIS RICHARD'
p202
(dp203
g3
F0.05930294195600317
sg4
F0.0
sg5
F0.0
sg6
F0.0
sg7
F0.0
sg8
F0.0
sg9
F0.01893939393939394
sg10
F0.0
sg11
F0.0
sg12
F0.1335386845443015
sg13
F0.005606506634687335
sg14
F0.0
sg15
F0.0009752020061298412
sg16
F0.0
sg17
F0.048330502413731456
sg18
F0.0
sg19
F0.0
sg20
F0.017317769277417967
sg21
F0.0
sg22
F0.0
sg23
F0.0
sg24
F0.0
sg25
F0.0
sg26
F0.77117203758661
sg27
F0.024760320601982324
ssS'KAMINSKI WINCENTY J'
p204
(dp205
g3
F0.3014842300556586
sg4
F0.0
sg5
F0.05926801000338322
sg6
F0.36537814244436384
sg7
F0.0
sg8
F0.06286466797552938
sg9
F0.07765151515151515
sg10
F0.0
sg11
F0.0
sg12
F0.10527269432868273
sg13
F0.011785235205312695
sg14
F0.0
sg15
F1.0
sg16
F0.00045068746489411064
sg17
F0.0409471710486817
sg18
F0.07083214868563145
sg19
F0.049999999999999996
sg20
F0.019874474644491505
sg21
F0.28078817733990147
sg22
F0.011901447661469933
sg23
F0.0085374347957626
sg24
F0.24755817280955458
sg25
F0.010494623140082947
sg26
F0.11006641845735568
sg27
F0.024746724620290723
ssS'COX DAVID'
p206
(dp207
g3
F0.0029817121653856345
sg4
F0.0
sg5
F0.10375635608066949
sg6
F0.12178979992393876
sg7
F0.0
sg8
F0.0
sg9
F0.0
sg10
F0.011770963586773832
sg11
F0.0
sg12
F0.012502264903062148
sg13
F0.008727981481270412
sg14
F0.0
sg15
F0.0014628030091947616
sg16
F4.768464503270307e-05
sg17
F0.0
sg18
F0.13979000532356145
sg19
F0.09999999999999999
sg20
F0.010092286963991382
sg21
F0.006568144499178982
sg22
F0.12121212121212122
sg23
F0.025612372130190478
sg24
F0.28282181095659154
sg25
F0.010635334120453485
sg26
F0.6895841028657369
sg27
F0.0034223152972786145
ssS'OVERDYKE JR JERE C'
p208
(dp209
g3
F0.058772859793267955
sg4
F0.0
sg5
F0.0
sg6
F0.08232974738047674
sg7
F0.0
sg8
F0.026399328025585405
sg9
F0.05018939393939394
sg10
F0.0
sg11
F0.0
sg12
F0.10726580902337379
sg13
F0.049193828135218415
sg14
F0.0
sg15
F0.002020061298411814
sg16
F1.6988861388169517e-05
sg17
F0.12916121979805267
sg18
F0.0
sg19
F0.0
sg20
F0.14880029308851841
sg21
F0.009852216748768473
sg22
F0.14634146341463414
sg23
F0.1382643482516302
sg24
F0.08543560541296441
sg25
F0.00241200752496676
sg26
F0.6215710091819834
sg27
F0.15332826138196196
ssS'PEREIRA PAULO V. FERRAZ'
p210
(dp211
g3
F0.058772859793267955
sg4
F0.0
sg5
F0.0
sg6
F0.12214387816211539
sg7
F0.0
sg8
F0.0
sg9
F0.05018939393939394
sg10
F0.02889236516753577
sg11
F0.0
sg12
F0.10726580902337379
sg13
F0.00018419899466585635
sg14
F0.0
sg15
F0.002020061298411814
sg16
F0.0
sg17
F0.12916121979805267
sg18
F0.0
sg19
F0.0
sg20
F0.0
sg21
F0.009852216748768473
sg22
F0.14634146341463414
sg23
F0.0
sg24
F0.09111295486736654
sg25
F0.0002698151395493809
sg26
F0.6215710091819834
sg27
F0.0
ssS'STABLER FRANK'
p212
(dp213
g3
F0.058772859793267955
sg4
F0.0
sg5
F0.08509683019317546
sg6
F0.07218824722529431
sg7
F0.0
sg8
F0.0
sg9
F0.05018939393939394
sg10
F0.0
sg11
F0.0
sg12
F0.10726580902337379
sg13
F0.00912569494298345
sg14
F0.0
sg15
F0.002020061298411814
sg16
F0.03437068672356198
sg17
F0.12916121979805267
sg18
F0.08652860192892582
sg19
F0.0625
sg20
F0.010420142277110618
sg21
F0.009852216748768473
sg22
F0.14634146341463414
sg23
F0.03466634655887054
sg24
F0.21552330781870635
sg25
F0.010738598135282097
sg26
F0.6215710091819834
sg27
F0.0
ssS'SKILLING JEFFREY K'
p214
(dp215
g3
F0.23654916512059368
sg4
F0.0
sg5
F0.20541192367494332
sg6
F0.1282375209277724
sg7
F1.0
sg8
F0.37314636627347664
sg9
F0.16666666666666669
sg10
F0.0
sg11
F0.0
sg12
F0.36963217974270696
sg13
F0.22192695946229188
sg14
F0.0
sg15
F0.006687099470604626
sg16
F0.0021353840433470796
sg17
F0.11163320017129215
sg18
F0.12412546181786129
sg19
F0.7
sg20
F0.5313302902919438
sg21
F0.04926108374384236
sg22
F0.2777777777777778
sg23
F0.46361020625410604
sg24
F1.0
sg25
F0.08384253915996143
sg26
F0.5541720776699927
sg27
F0.5604339348249978
ssS'BLAKE JR. NORMAN P'
p216
(dp217
g3
F0.058772859793267955
sg4
F0.0
sg5
F0.0
sg6
F0.005590939094171698
sg7
F0.0
sg8
F0.0
sg9
F0.05018939393939394
sg10
F0.03246902595775694
sg11
F0.0
sg12
F0.10726580902337379
sg13
F8.43141200263511e-06
sg14
F0.0
sg15
F0.002020061298411814
sg16
F0.0
sg17
F0.12916121979805267
sg18
F0.0
sg19
F0.0
sg20
F0.0
sg21
F0.009852216748768473
sg22
F0.14634146341463414
sg23
F0.0
sg24
F0.10239206376916972
sg25
F1.2350352998484652e-05
sg26
F0.6215710091819834
sg27
F0.0
ssS'SHERRICK JEFFREY B'
p218
(dp219
g3
F0.036840710310098064
sg4
F0.0
sg5
F0.0
sg6
F0.0
sg7
F0.0
sg8
F0.0
sg9
F0.07386363636363637
sg10
F0.0
sg11
F0.0
sg12
F0.10527269432868273
sg13
F0.012079978647103015
sg14
F0.0
sg15
F0.0009055447199777098
sg16
F0.0
sg17
F0.29272673631599044
sg18
F0.0
sg19
F0.0
sg20
F0.037313481766410556
sg21
F0.029556650246305417
sg22
F0.72
sg23
F0.02750355074424385
sg24
F0.0
sg25
F0.0
sg26
F0.9490367226762231
sg27
F0.04152943556238337
ssS'PRENTICE JAMES'
p220
(dp221
g3
F0.058772859793267955
sg4
F0.0878090676973202
sg5
F0.0
sg6
F0.0
sg7
F0.0
sg8
F0.0
sg9
F0.05018939393939394
sg10
F0.0
sg11
F0.0
sg12
F0.10726580902337379
sg13
F0.007218712587463293
sg14
F0.0
sg15
F0.002020061298411814
sg16
F0.0
sg17
F0.12916121979805267
sg18
F0.0
sg19
F0.0
sg20
F0.022297663628227184
sg21
F0.009852216748768473
sg22
F0.14634146341463414
sg23
F0.014145327765228028
sg24
F0.0
sg25
F0.005449489455816119
sg26
F0.6215710091819834
sg27
F0.025801242934747674
ssS'GRAY RODNEY'
p222
(dp223
g3
F0.058772859793267955
sg4
F0.014561248733855194
sg5
F0.0
sg6
F0.0
sg7
F0.0
sg8
F0.0710581459212187
sg9
F0.05018939393939394
sg10
F0.0
sg11
F0.0
sg12
F0.10726580902337379
sg13
F0.00689845077517868
sg14
F0.0
sg15
F0.002020061298411814
sg16
F0.06571919014483872
sg17
F0.12916121979805267
sg18
F0.0
sg19
F0.0
sg20
F0.0
sg21
F0.009852216748768473
sg22
F0.14634146341463414
sg23
F0.0
sg24
F0.005952713051334614
sg25
F0.011072424604015961
sg26
F0.6215710091819834
sg27
F0.0
ssS'UMANOFF ADAM S'
p224
(dp225
g3
F0.0035780545984627613
sg4
F0.0
sg5
F0.1114069083257526
sg6
F0.23221412553603513
sg7
F0.0
sg8
F0.0
sg9
F0.022727272727272728
sg10
F0.0
sg11
F0.0
sg12
F0.007066497553904693
sg13
F0.005549780833058972
sg14
F0.0
sg15
F0.00041794371691278906
sg16
F0.0
sg17
F0.4974123059229443
sg18
F0.13428027887148103
sg19
F0.09859375
sg20
F0.0
sg21
F0.0
sg22
F0.0
sg23
F0.0
sg24
F0.2596957682194414
sg25
F0.010916022205645004
sg26
F0.35714673023462373
sg27
F0.0
ssS'KEAN STEVEN J'
p226
(dp227
g3
F0.8413066525311422
sg4
F0.0
sg5
F0.1008110097241709
sg6
F0.1833906706941245
sg7
F0.0
sg8
F0.05830411973023073
sg9
F0.26515151515151514
sg10
F0.0
sg11
F0.0
sg12
F0.6589961949628556
sg13
F0.04942050720724548
sg14
F0.0
sg15
F0.4699777096684314
sg16
F0.00011882550209566293
sg17
F0.050505640283065145
sg18
F0.1101300393738486
sg19
F0.125
sg20
F0.12530303861459963
sg21
F0.6354679802955665
sg22
F0.05725699067909454
sg23
F0.27988617024577256
sg24
F0.3638560982238148
sg25
F0.016874521948880294
sg26
F0.271625983560143
sg27
F0.05886879569065025
ssS'FOWLER PEGGY'
p228
(dp229
g3
F0.030479724357275376
sg4
F0.0
sg5
F0.0
sg6
F0.0
sg7
F0.0
sg8
F0.0
sg9
F0.0
sg10
F0.0
sg11
F0.0
sg12
F0.0014495379597753216
sg13
F0.012424618380877652
sg14
F0.0
sg15
F0.0016717748676511562
sg16
F0.0
sg17
F0.0
sg18
F0.0
sg19
F0.0
sg20
F0.03837802904731693
sg21
F0.0
sg22
F0.0
sg23
F0.03794754179296766
sg24
F0.0
sg25
F0.0
sg26
F0.000982567819354789
sg27
F0.03856303691026629
ssS'WASAFF GEORGE'
p230
(dp231
g3
F0.022727272727272724
sg4
F0.12934499664695293
sg5
F0.05095293645364483
sg6
F0.0
sg7
F0.0
sg8
F0.03886941315348715
sg9
F0.04166666666666667
sg10
F0.16645569295163262
sg11
F0.0
sg12
F0.060699402065591594
sg13
F0.01702665313043792
sg14
F0.0
sg15
F0.001253831150738367
sg16
F0.00013755186067125887
sg17
F0.2530585106382979
sg18
F0.060467970810634875
sg19
F0.040625
sg20
F0.04187382883000104
sg21
F0.011494252873563218
sg22
F0.23333333333333334
sg23
F0.02629555930369509
sg24
F0.23396546976489707
sg25
F0.009988384198489079
sg26
F0.8385729349250151
sg27
F0.0485688060317481
ssS'WHITE JR THOMAS E'
p232
(dp233
g3
F0.058772859793267955
sg4
F0.0
sg5
F0.05776469619054213
sg6
F0.35562131988127454
sg7
F0.0
sg8
F0.0
sg9
F0.05018939393939394
sg10
F0.0
sg11
F0.0
sg12
F0.10726580902337379
sg13
F0.11049130747461684
sg14
F0.0
sg15
F0.002020061298411814
sg16
F0.10477716164196958
sg17
F0.12916121979805267
sg18
F0.04477173058361969
sg19
F0.056249999999999994
sg20
F0.30837098242849464
sg21
F0.009852216748768473
sg22
F0.14634146341463414
sg23
F0.9380409863529212
sg24
F0.2857509237278832
sg25
F0.01867866808115385
sg26
F0.6215710091819834
sg27
F0.0377615727132898
ssS'CHRISTODOULOU DIOMEDES'
p234
(dp235
g3
F0.058772859793267955
sg4
F0.0
sg5
F0.0
sg6
F0.0
sg7
F0.0
sg8
F0.0
sg9
F0.05018939393939394
sg10
F0.0
sg11
F0.0
sg12
F0.10726580902337379
sg13
F0.0400665774352118
sg14
F0.0
sg15
F0.002020061298411814
sg16
F0.0
sg17
F0.12916121979805267
sg18
F0.0
sg19
F0.0
sg20
F0.123760442815831
sg21
F0.009852216748768473
sg22
F0.14634146341463414
sg23
F0.06440520986277048
sg24
F0.0
sg25
F0.0
sg26
F0.6215710091819834
sg27
F0.1492691766809175
ssS'ALLEN PHILLIP K'
p236
(dp237
g3
F0.188510469122714
sg4
F0.446510263747104
sg5
F0.8426639080890859
sg6
F0.06062169144485778
sg7
F0.0
sg8
F0.05923795738124326
sg9
F0.08901515151515152
sg10
F0.8791996657902412
sg11
F0.04838836010120983
sg12
F0.2545751041855408
sg13
F0.041856409968449845
sg14
F0.0
sg15
F0.1520618556701031
sg16
F1.4672198471600946e-05
sg17
F0.07451757408683668
sg18
F0.17917462938161163
sg19
F0.521875
sg20
F0.03521763903531165
sg21
F0.10673234811165845
sg22
F0.029612756264236904
sg23
F0.0085374347957626
sg24
F0.18173547457026182
sg25
F0.04330292548962511
sg26
F0.4746399584835324
sg27
F0.05035290743226814
ssS'SHARP VICTORIA T'
p238
(dp239
g3
F0.2040153723827193
sg4
F0.02916902002337019
sg5
F0.0985590468107932
sg6
F0.5085481480833877
sg7
F0.0
sg8
F0.08204516859024914
sg9
F0.045454545454545456
sg10
F0.0
sg11
F0.0
sg12
F0.4484508063054901
sg13
F0.010778442869032439
sg14
F0.0
sg15
F0.008637503482864309
sg16
F0.00023176281927838073
sg17
F0.0352122231871472
sg18
F0.07324579403505589
sg19
F0.075
sg20
F0.010061804422302078
sg21
F0.009852216748768473
sg22
F0.04411764705882353
sg23
F0.014433506073218966
sg24
F0.2233018794915312
sg25
F0.015223195743544988
sg26
F0.7850096668768392
sg27
F0.008183005057821643
ssS'JAEDICKE ROBERT'
p240
(dp241
g3
F0.058772859793267955
sg4
F0.0
sg5
F0.0
sg6
F0.0
sg7
F0.0
sg8
F0.0
sg9
F0.05018939393939394
sg10
F0.007133917325317474
sg11
F0.016929610019619963
sg12
F0.10726580902337379
sg13
F0.0031368478354729472
sg14
F0.0
sg15
F0.002020061298411814
sg16
F0.0
sg17
F0.12916121979805267
sg18
F0.0
sg19
F0.0
sg20
F0.008791474531968775
sg21
F0.009852216748768473
sg22
F0.14634146341463414
sg23
F0.0029869878077678617
sg24
F0.0978620626353196
sg25
F0.0008087115430985846
sg26
F0.6215710091819834
sg27
F0.012569732538217809
ssS'WINOKUR JR. HERBERT S'
p242
(dp243
g3
F0.058772859793267955
sg4
F0.0
sg5
F0.0
sg6
F0.006176698154858959
sg7
F0.0
sg8
F0.0
sg9
F0.05018939393939394
sg10
F0.007133917325317474
sg11
F0.0
sg12
F0.10726580902337379
sg13
F9.314765566632848e-06
sg14
F0.0
sg15
F0.002020061298411814
sg16
F0.0
sg17
F0.12916121979805267
sg18
F0.0
sg19
F0.0
sg20
F0.0
sg21
F0.009852216748768473
sg22
F0.14634146341463414
sg23
F0.0
sg24
F0.09770818297821028
sg25
F0.0008207046145795212
sg26
F0.6215710091819834
sg27
F0.0
ssS'BROWN MICHAEL'
p244
(dp245
g3
F0.09468592631857936
sg4
F0.0
sg5
F0.0
sg6
F0.2154544222623414
sg7
F0.0
sg8
F0.0
sg9
F0.02462121212121212
sg10
F0.0
sg11
F0.0
sg12
F0.13752491393368363
sg13
F0.0003249158989725405
sg14
F0.0
sg15
F0.002020061298411814
sg16
F0.0
sg17
F0.0402515678245182
sg18
F0.0
sg19
F0.0
sg20
F0.0
sg21
F0.0016420361247947454
sg22
F0.024390243902439025
sg23
F0.0
sg24
F0.0
sg25
F0.0004759376064029019
sg26
F0.5023931938012483
sg27
F0.0
ssS'MCCLELLAN GEORGE'
p246
(dp247
g3
F0.11178107606679034
sg4
F0.0
sg5
F0.13927008099397764
sg6
F1.0
sg7
F0.0
sg8
F0.0
sg9
F0.09848484848484848
sg10
F0.03566958662658737
sg11
F0.0
sg12
F0.2658090233737996
sg13
F0.014029572923799898
sg14
F0.0
sg15
F0.002577319587628866
sg16
F0.0049795704115426186
sg17
F0.13718768299824324
sg18
F0.13134217444681112
sg19
F0.11249999999999999
sg20
F0.019300743118347317
sg21
F0.0
sg22
F0.0
sg23
F0.029881123399523115
sg24
F0.23704036326397648
sg25
F0.012734314754762013
sg26
F0.8383862315545068
sg27
F0.014753678076965716
ssS'HUGHES JAMES A'
p248
(dp249
g3
F0.04386429896633978
sg4
F0.0
sg5
F0.0
sg6
F0.0
sg7
F0.0
sg8
F0.0
sg9
F0.06628787878787878
sg10
F0.0
sg11
F0.0
sg12
F0.10635984779851422
sg13
F0.007372666610848391
sg14
F0.0
sg15
F0.0015324602953468935
sg16
F0.0
sg17
F0.2239738999201018
sg18
F0.0
sg19
F0.0
sg20
F0.022773207568515773
sg21
F0.008210180623973728
sg22
F0.14705882352941177
sg23
F0.024619667634351448
sg24
F0.0
sg25
F0.0
sg26
F0.8148576144305216
sg27
F0.02197966576826438
ssS'REYNOLDS LAWRENCE'
p250
(dp251
g3
F0.058772859793267955
sg4
F0.007992077162092985
sg5
F0.0533537376796186
sg6
F0.036758566726262557
sg7
F0.0
sg8
F0.03036672902616184
sg9
F0.05018939393939394
sg10
F0.057071338602539795
sg11
F0.053854689401763876
sg12
F0.10726580902337379
sg13
F0.031832805904235026
sg14
F0.0
sg15
F0.002020061298411814
sg16
F0.019503598984104698
sg17
F0.12916121979805267
sg18
F0.048787544626824685
sg19
F0.012499999999999999
sg20
F0.08596791477301258
sg21
F0.009852216748768473
sg22
F0.14634146341463414
sg23
F0.01364904326021119
sg24
F0.06875001124851295
sg25
F0.0038091520712097214
sg26
F0.6215710091819834
sg27
F0.12113152106369837
ssS'PICKERING MARK R'
p252
(dp253
g3
F0.055724887357540415
sg4
F0.0
sg5
F0.01866843646229991
sg6
F0.13836590707413352
sg7
F0.0
sg8
F0.0
sg9
F0.013257575757575758
sg10
F0.0
sg11
F0.0
sg12
F0.13154556984961044
sg13
F0.00501303806787793
sg14
F0.004906470407850352
sg15
F0.003831150738367233
sg16
F0.0
sg17
F0.03586575368431029
sg18
F0.041636126315182195
sg19
F0.0375
sg20
F0.0005863969509476242
sg21
F0.0
sg22
F0.0
sg23
F0.0
sg24
F0.5894553739995573
sg25
F0.013390235339694044
sg26
F0.806205629030588
sg27
F0.0008384091664981968
ssS'BHATNAGAR SANJAY'
p254
(dp255
g3
F0.03087728597932679
sg4
F0.0
sg5
F0.0
sg6
F0.6026499040491688
sg7
F0.0
sg8
F0.0
sg9
F0.0
sg10
F0.0
sg11
F0.9999999999999999
sg12
F0.0835296249320529
sg13
F0.1199689331143733
sg14
F0.0
sg15
F0.0011841738645862357
sg16
F0.0
sg17
F0.0
sg18
F0.0
sg19
F0.0
sg20
F0.3147274577735348
sg21
F0.0016420361247947454
sg22
F0.034482758620689655
sg23
F0.17643571259504498
sg24
F0.0
sg25
F0.001331250246898427
sg26
F0.8821002108408688
sg27
F0.44998594402578007
ssS'CARTER REBECCA C'
p256
(dp257
g3
F0.016896368937185262
sg4
F0.0
sg5
F0.04670777786460949
sg6
F0.0
sg7
F0.0
sg8
F0.014576029932557683
sg9
F0.054924242424242424
sg10
F0.045597716689885194
sg11
F0.11798893449389324
sg12
F0.03515129552455155
sg13
F0.004501418141744614
sg14
F0.0
sg15
F0.00020897185845639447
sg16
F5.2124915622792834e-05
sg17
F0.42766298417894166
sg18
F0.120899494720002
sg19
F0.0375
sg20
F0.0
sg21
F0.011494252873563218
sg22
F0.4666666666666667
sg23
F0.020817461735760136
sg24
F0.23559695408267026
sg25
F0.0046114132344779795
sg26
F0.620520752010312
sg27
F0.0
ssS'BUCHANAN HAROLD G'
p258
(dp259
g3
F0.06831433872250198
sg4
F0.0
sg5
F0.08217525824812778
sg6
F0.0026228017642713204
sg7
F0.0
sg8
F0.05923795738124326
sg9
F0.0
sg10
F0.0
sg11
F0.0
sg12
F0.003805037144410219
sg13
F0.012005203427129685
sg14
F0.0
sg15
F0.007871273335190861
sg16
F0.00011728106015128387
sg17
F0.0
sg18
F0.09124213670991377
sg19
F0.0625
sg20
F0.02065777619005207
sg21
F0.0
sg22
F0.0
sg23
F0.012806186065095239
sg24
F0.22318579483792242
sg25
F0.010183846157359545
sg26
F0.0028114274669467677
sg27
F0.024032105848123743
ssS'YEAP SOON'
p260
(dp261
g3
F0.058772859793267955
sg4
F0.0
sg5
F0.0
sg6
F0.24084751467676155
sg7
F0.0
sg8
F0.0
sg9
F0.05018939393939394
sg10
F0.0
sg11
F0.0
sg12
F0.10726580902337379
sg13
F0.0016339074448108878
sg14
F0.0
sg15
F0.002020061298411814
sg16
F0.0
sg17
F0.12916121979805267
sg18
F0.0
sg19
F0.0
sg20
F0.0039250192190694545
sg21
F0.009852216748768473
sg22
F0.14634146341463414
sg23
F0.0
sg24
F0.0
sg25
F0.0005320308046579429
sg26
F0.6215710091819834
sg27
F0.005611850618649192
ssS'MURRAY JULIA H'
p262
(dp263
g3
F0.1414656771799629
sg4
F0.0
sg5
F0.07111132403456293
sg6
F0.25170154264457106
sg7
F0.0
sg8
F0.02429338322092947
sg9
F0.020833333333333336
sg10
F0.0
sg11
F0.0
sg12
F0.07120855227396268
sg13
F0.007781230818578897
sg14
F0.0
sg15
F0.00229869044302034
sg16
F3.1854115102817845e-05
sg17
F0.023089280167727908
sg18
F0.0947826094094104
sg19
F0.049999999999999996
sg20
F0.012165751396281635
sg21
F0.003284072249589491
sg22
F0.044444444444444446
sg23
F0.013344200198161538
sg24
F0.20632832339564708
sg25
F0.007842754185497455
sg26
F0.1646613271826289
sg27
F0.011659296693550415
ssS'GARLAND C KEVIN'
p264
(dp265
g3
F0.010071561091969255
sg4
F0.0
sg5
F0.14937728498173733
sg6
F0.21159453233258876
sg7
F0.0
sg8
F0.07293923117078172
sg9
F0.01893939393939394
sg10
F0.0
sg11
F0.0
sg12
F0.03188983511505707
sg13
F0.014705041751673243
sg14
F0.0
sg15
F0.0022290331568682086
sg16
F0.00587023077534171
sg17
F0.22014659472666193
sg18
F0.10443006958111949
sg19
F0.10625
sg20
F0.018247843141279474
sg21
F0.04433497536945813
sg22
F0.6136363636363636
sg23
F0.017606854606253185
sg24
F0.20872380671275256
sg25
F0.015126227608431004
sg26
F0.8479084384445131
sg27
F0.01852331684658003
ssS'DODSON KEITH'
p266
(dp267
g3
F0.007884972170686457
sg4
F0.0
sg5
F0.012910777426051352
sg6
F0.12311431481489578
sg7
F0.0
sg8
F0.0
sg9
F0.01893939393939394
sg10
F0.0
sg11
F0.0
sg12
F0.020293531436854504
sg13
F0.0006522181710060302
sg14
F0.0
sg15
F0.0001393145723042631
sg16
F7.47123790593364e-05
sg17
F0.26142408123791105
sg18
F0.04210722185236236
sg19
F0.008749999999999999
sg20
F0.0
sg21
F0.0049261083743842365
sg22
F0.21428571428571427
sg23
F0.0
sg24
F0.19887640853879116
sg25
F0.0030894325947522895
sg26
F0.6403851855013041
sg27
F0.0
ssS'YEAGER F SCOTT'
p268
(dp269
g3
F0.12046117148157963
sg4
F0.0
sg5
F0.0
sg6
F0.2358204779619082
sg7
F1.0
sg8
F0.0
sg9
F0.11742424242424243
sg10
F0.0
sg11
F0.0
sg12
F0.28755209277042937
sg13
F0.07967753560493329
sg14
F0.0
sg15
F0.0022638617999442743
sg16
F0.014281261604429999
sg17
F0.15214184397163122
sg18
F0.0
sg19
F0.0
sg20
F0.24200242565283647
sg21
F0.025451559934318555
sg22
F0.34831460674157305
sg23
F0.2422625750134097
sg24
F0.14254385570227615
sg25
F0.0034791494803393433
sg26
F0.843626683992389
sg27
F0.24189062286016133
ssS'HIRKO JOSEPH'
p270
(dp271
g3
F0.12046117148157963
sg4
F0.0015962371187756633
sg5
F0.0
sg6
F0.34086805995724834
sg7
F1.0
sg8
F0.0
sg9
F0.11742424242424243
sg10
F0.0
sg11
F0.0
sg12
F0.28755209277042937
sg13
F0.20334863646697499
sg14
F0.0
sg15
F0.0022638617999442743
sg16
F0.00027568288707165986
sg17
F0.15214184397163122
sg18
F0.0
sg19
F0.0
sg20
F0.6264714953211844
sg21
F0.025451559934318555
sg22
F0.34831460674157305
sg23
F0.0
sg24
F0.0
sg25
F0.0008796174399460223
sg26
F0.843626683992389
sg27
F0.8957063016414396
ssS'DIETRICH JANET R'
p272
(dp273
g3
F0.16664457990988601
sg4
F0.0
sg5
F0.09778901731271929
sg6
F0.01519039355140473
sg7
F0.0
sg8
F0.10813781694605354
sg9
F0.5776515151515151
sg10
F0.0
sg11
F0.0
sg12
F0.3442652654466389
sg13
F0.019944350175750115
sg14
F0.0
sg15
F0.0035525215937587075
sg16
F4.565756498070558e-05
sg17
F0.5456160451341783
sg18
F0.08186866166027633
sg19
F0.075
sg20
F0.037977683521496344
sg21
F0.022988505747126436
sg22
F0.2222222222222222
sg23
F0.021343620860857837
sg24
F0.22506024703534191
sg25
F0.013619803199104502
sg26
F0.7337693716072482
sg27
F0.04512640245316927
ssS'DERRICK JR. JAMES V'
p274
(dp275
g3
F0.14073681420620193
sg4
F0.0
sg5
F0.0662287436199674
sg6
F0.22348019566101163
sg7
F0.0
sg8
F0.09406397983143891
sg9
F0.12121212121212122
sg10
F0.36639799382830546
sg11
F0.6862687128766092
sg12
F0.25348795071570934
sg13
F0.07885512025246984
sg14
F0.0
sg15
F0.062482585678461974
sg16
F0.0007222196642402519
sg17
F0.1350151696957281
sg18
F0.27943564902117013
sg19
F0.09999999999999999
sg20
F0.1798391157106287
sg21
F0.03284072249589491
sg22
F0.022002200220022004
sg23
F0.12108230938806887
sg24
F0.44307892496611945
sg25
F0.00532041426540897
sg26
F0.6349297968296213
sg27
F0.2571274677725741
ssS'FREVERT MARK A'
p276
(dp277
g3
F0.21322554996024382
sg4
F1.0
sg5
F0.07684134713601214
sg6
F0.38024942844778226
sg7
F0.0
sg8
F0.31426134316366705
sg9
F0.45833333333333337
sg10
F0.9607991242973806
sg11
F0.0
sg12
F0.5394093132813915
sg13
F0.18295837073055696
sg14
F0.024532352039251762
sg15
F0.0006269155753691836
sg16
F0.7169705887094151
sg17
F0.33998700665908727
sg18
F0.022310312361916388
sg19
F0.25
sg20
F0.29774306202486583
sg21
F0.009852216748768473
sg22
F0.2857142857142857
sg23
F0.283752460930297
sg24
F0.9547125869959991
sg25
F0.16659486756602535
sg26
F0.9068680658357466
sg27
F0.3037557167172697
ssS'PAI LOU L'
p278
(dp279
g3
F0.058772859793267955
sg4
F0.0
sg5
F0.15565097640456782
sg6
F0.140088213566005
sg7
F0.0
sg8
F0.0
sg9
F0.05018939393939394
sg10
F0.0
sg11
F0.0
sg12
F0.10726580902337379
sg13
F0.17587591872643568
sg14
F0.0
sg15
F0.002020061298411814
sg16
F0.17659313288986614
sg17
F0.12916121979805267
sg18
F0.06161737662869609
sg19
F0.125
sg20
F0.4849906774735727
sg21
F0.009852216748768473
sg22
F0.14634146341463414
sg23
F0.572682444169348
sg24
F0.23565994575517116
sg25
F0.03016018967901954
sg26
F0.6215710091819834
sg27
F0.4473039255645913
ssS'HAYSLETT RODERICK J'
p280
(dp281
g3
F0.17174662072621255
sg4
F0.0
sg5
F0.0
sg6
F0.0
sg7
F0.0
sg8
F0.0
sg9
F0.06628787878787878
sg10
F0.0
sg11
F0.0
sg12
F0.10309838738901975
sg13
F0.0022852686310160246
sg14
F0.0
sg15
F0.07307049317358597
sg16
F0.0
sg17
F0.060791707830333414
sg18
F0.0
sg19
F0.0
sg20
F0.007058897361148561
sg21
F0.06239737274220033
sg22
F0.03581526861451461
sg23
F0.023483957870959794
sg24
F0.0
sg25
F0.0
sg26
F0.20063348122568175
sg27
F0.0
ssS'BAY FRANKLIN R'
p282
(dp283
g3
F0.058772859793267955
sg4
F0.04052519141931137
sg5
F0.06802946046847856
sg6
F0.5645231090692114
sg7
F0.0
sg8
F0.0
sg9
F0.05018939393939394
sg10
F0.05753960893577363
sg11
F0.03178434165613997
sg12
F0.10726580902337379
sg13
F0.0044497749192046274
sg14
F0.0
sg15
F0.002020061298411814
sg16
F6.66040588513464e-06
sg17
F0.12916121979805267
sg18
F0.09300741657162372
sg19
F0.049999999999999996
sg20
F0.0012831174896525313
sg21
F0.009852216748768473
sg22
F0.14634146341463414
sg23
F0.009876644238798067
sg24
F0.21567538771374423
sg25
F0.007992445485092849
sg26
F0.6215710091819834
sg27
F0.0
ssS'MCCARTY DANNY J'
p284
(dp285
g3
F0.09117413199045851
sg4
F0.0
sg5
F0.0
sg6
F0.0
sg7
F0.0
sg8
F0.0
sg9
F0.04734848484848485
sg10
F0.0
sg11
F0.0
sg12
F0.0916832759557891
sg13
F0.005003017937898254
sg14
F0.0
sg15
F0.014140429088882698
sg16
F0.0
sg17
F0.08026978070110319
sg18
F0.0
sg19
F0.0
sg20
F0.015453671240351114
sg21
F0.003284072249589491
sg22
F0.009302325581395349
sg23
F0.006405497905592678
sg24
F0.0
sg25
F0.0
sg26
F0.3420177158294926
sg27
F0.01934224911425236
ssS'FUGH JOHN L'
p286
(dp287
g3
F0.058772859793267955
sg4
F0.007871647536405067
sg5
F0.0
sg6
F0.0
sg7
F0.0
sg8
F0.0
sg9
F0.05018939393939394
sg10
F0.0
sg11
F0.0
sg12
F0.10726580902337379
sg13
F0.0011627174247074085
sg14
F0.0
sg15
F0.002020061298411814
sg16
F0.0
sg17
F0.12916121979805267
sg18
F0.0
sg19
F0.0
sg20
F0.003591482790966042
sg21
F0.009852216748768473
sg22
F0.14634146341463414
sg23
F0.0
sg24
F0.0
sg25
F0.0004885197095749312
sg26
F0.6215710091819834
sg27
F0.005134972288652648
ssS'SCRIMSHAW MATTHEW'
p288
(dp289
g3
F0.058772859793267955
sg4
F0.0
sg5
F0.0
sg6
F0.0
sg7
F0.0
sg8
F0.0
sg9
F0.05018939393939394
sg10
F0.0
sg11
F0.0
sg12
F0.10726580902337379
sg13
F0.005007144649324094
sg14
F0.0
sg15
F0.002020061298411814
sg16
F0.0
sg17
F0.12916121979805267
sg18
F0.0
sg19
F0.0
sg20
F0.015466418114831746
sg21
F0.009852216748768473
sg22
F0.14634146341463414
sg23
F0.0
sg24
F0.0
sg25
F0.0
sg26
F0.6215710091819834
sg27
F0.02211332562253875
ssS'KOENIG MARK E'
p290
(dp291
g3
F0.15352504638218922
sg4
F0.0
sg5
F0.09205863419723524
sg6
F0.5552340194874171
sg7
F1.0
sg8
F0.05830411973023073
sg9
F0.10037878787878789
sg10
F0.0
sg11
F0.0
sg12
F0.41112520384127554
sg13
F0.02107872777231106
sg14
F0.0
sg15
F0.0034132070214544447
sg16
F0.014523352879211415
sg17
F0.10271962214773522
sg18
F0.08486612352152748
sg19
F0.0875
sg20
F0.039096964985476095
sg21
F0.02463054187192118
sg22
F0.2459016393442623
sg23
F0.08456468478482211
sg24
F0.27891452749946455
sg25
F0.0153285455099355
sg26
F0.9546870366108069
sg27
F0.01955658234169037
ssS'SAVAGE FRANK'
p292
(dp293
g3
F0.058772859793267955
sg4
F0.0
sg5
F0.0
sg6
F0.0
sg7
F0.0
sg8
F0.0
sg9
F0.05018939393939394
sg10
F0.03460920115535218
sg11
F0.0
sg12
F0.10726580902337379
sg13
F0.0
sg14
F0.0
sg15
F0.002020061298411814
sg16
F0.0
sg17
F0.12916121979805267
sg18
F0.0
sg19
F0.0
sg20
F0.0
sg21
F0.009852216748768473
sg22
F0.14634146341463414
sg23
F0.0
sg24
F0.11251572542109933
sg25
F3.621096461635453e-05
sg26
F0.6215710091819834
sg27
F0.0
ssS'IZZO LAWRENCE L'
p294
(dp295
g3
F0.029088258680095416
sg4
F0.0
sg5
F0.0
sg6
F0.12280394993945701
sg7
F0.0
sg8
F0.06073345805232368
sg9
F0.05303030303030303
sg10
F0.0
sg11
F0.0
sg12
F0.07881862656278311
sg13
F0.050854150488469155
sg14
F0.0
sg15
F0.00048760100306492065
sg16
F0.149977764862382
sg17
F0.2597374742621826
sg18
F0.0
sg19
F0.0
sg20
F0.1185088730667461
sg21
F0.008210180623973728
sg22
F0.2631578947368421
sg23
F0.24758730264968232
sg24
F0.07673645544059075
sg25
F0.01911548818951386
sg26
F0.8777972051275171
sg27
F0.0630356292744369
ssS'TILNEY ELIZABETH A'
p296
(dp297
g3
F0.026702888947786906
sg4
F0.0
sg5
F0.04944050899965046
sg6
F0.0
sg7
F0.0
sg8
F0.05344544308604483
sg9
F0.01893939393939394
sg10
F0.1640800984823019
sg11
F0.0
sg12
F0.06830947635441204
sg13
F0.012492840963219539
sg14
F0.0
sg15
F0.00048760100306492065
sg16
F0.014677507490784749
sg17
F0.10002312673450509
sg18
F0.14456037036202438
sg19
F0.0375
sg20
F0.023784160961829465
sg21
F0.0180623973727422
sg22
F0.5789473684210527
sg23
F0.039073564321276406
sg24
F0.22257477561466374
sg25
F0.0038566415442719162
sg26
F0.8196600864309762
sg27
F0.017213327998196363
ssS'MARTIN AMANDA K'
p298
(dp299
g3
F0.09707129605088788
sg4
F0.013292381036846174
sg5
F0.0
sg6
F0.03589304214405302
sg7
F0.0
sg8
F1.0
sg9
F0.015151515151515152
sg10
F0.0
sg11
F0.0
sg12
F0.08606631636165972
sg13
F0.06620144961088573
sg14
F0.0
sg15
F0.01518528838116467
sg16
F0.2720586609939314
sg17
F0.024184303967344202
sg18
F0.0
sg19
F0.0
sg20
F0.04215643884743983
sg21
F0.0
sg22
F0.0
sg23
F0.0
sg24
F0.3144967235331489
sg25
F0.08118030904136704
sg26
F0.3001995057052162
sg27
F0.06027375261671699
ssS'BUY RICHARD B'
p300
(dp301
g3
F0.22965809700503576
sg4
F0.10107126353082858
sg5
F0.11098470362632322
sg6
F0.0
sg7
F0.0
sg8
F0.14962042074584964
sg9
F0.29545454545454547
sg10
F0.19828352242019
sg11
F0.0
sg12
F0.4223591230295343
sg13
F0.03635529927989083
sg14
F0.0
sg15
F0.07251323488436891
sg16
F0.038666262408987725
sg17
F0.20373714375441626
sg18
F0.07352763634789121
sg19
F0.11249999999999999
sg20
F0.070137742399839
sg21
F0.11658456486042693
sg22
F0.06742640075973409
sg23
F0.061080862399667674
sg24
F0.29745207683544234
sg25
F0.02274726447164683
sg26
F0.6551317129576617
sg27
F0.07403006208385232
ssS'GRAMM WENDY L'
p302
(dp303
g3
F0.058772859793267955
sg4
F0.0
sg5
F0.0
sg6
F0.0
sg7
F0.0
sg8
F0.0
sg9
F0.05018939393939394
sg10
F0.0
sg11
F0.0
sg12
F0.10726580902337379
sg13
F0.0
sg14
F0.0
sg15
F0.002020061298411814
sg16
F0.0
sg17
F0.12916121979805267
sg18
F0.0
sg19
F0.0
sg20
F0.0
sg21
F0.009852216748768473
sg22
F0.14634146341463414
sg23
F0.0
sg24
F0.10734860851395445
sg25
F0.0011519142376037773
sg26
F0.6215710091819834
sg27
F0.0
ssS'CAUSEY RICHARD A'
p304
(dp305
g3
F0.12158759607739197
sg4
F0.0
sg5
F0.098176305369005
sg6
F0.13408636886209746
sg7
F1.0
sg8
F0.06802147301860252
sg9
F0.10984848484848485
sg10
F0.06705882285798426
sg11
F0.0
sg12
F0.2868273237905417
sg13
F0.027625445616440016
sg14
F0.0
sg15
F0.002577319587628866
sg16
F0.029720372029036667
sg17
F0.14104741127254736
sg18
F0.10298533393123491
sg19
F0.125
sg20
F0.05094805591634369
sg21
F0.019704433497536946
sg22
F0.24489795918367346
sg23
F0.1694970103024761
sg24
F0.3736207073424893
sg25
F0.01804520795054119
sg26
F0.8337272818292846
sg27
F0.0
ssS'TAYLOR MITCHELL S'
p306
(dp307
g3
F0.03153988868274582
sg4
F0.03538966141226297
sg5
F0.09221622248414899
sg6
F0.0
sg7
F0.0
sg8
F0.0
sg9
F0.0
sg10
F0.0
sg11
F0.0
sg12
F0.05399528900163073
sg13
F0.02864338534732266
sg14
F0.0
sg15
F0.0011841738645862357
sg16
F0.0
sg17
F0.0
sg18
F0.10568015939040674
sg19
F0.075
sg20
F0.07625823766763311
sg21
F0.0
sg22
F0.0
sg23
F0.038193313043882356
sg24
F0.23866104900932097
sg25
F0.01055103499482661
sg26
F0.554021541823503
sg27
F0.09261716650192335
ssS'DONAHUE JR JEFFREY M'
p308
(dp309
g3
F0.05353829843625762
sg4
F0.0
sg5
F0.11704687937186677
sg6
F0.4208198004047858
sg7
F0.0
sg8
F0.0
sg9
F0.3560606060606061
sg10
F0.08560700790380969
sg11
F0.0
sg12
F0.1395180286283747
sg13
F0.013040322407174853
sg14
F0.0
sg15
F0.0006965728615213152
sg16
F8.600611077760817e-05
sg17
F1.0
sg18
F0.17580585244054686
sg19
F0.09999999999999999
sg20
F0.022011530912249826
sg21
F0.0180623973727422
sg22
F0.5
sg23
F0.021343620860857837
sg24
F0.25070775643459936
sg25
F0.008456563832644972
sg26
F0.8894348991490711
sg27
F0.022298574512268174
ssS'GLISAN JR BEN F'
p310
(dp311
g3
F0.05406838059899284
sg4
F0.0
sg5
F0.08894275199531264
sg6
F0.550692201098954
sg7
F1.0
sg8
F0.01380311165200059
sg9
F0.09848484848484848
sg10
F0.0
sg11
F0.0
sg12
F0.15799963761551006
sg13
F0.011706774950695524
sg14
F0.0
sg15
F0.00027862914460852607
sg16
F0.01933525481216738
sg17
F0.2740610757719773
sg18
F0.09076023906612046
sg19
F0.075
sg20
F0.015853080094883988
sg21
F0.009852216748768473
sg22
F0.375
sg23
F0.026678374446726775
sg24
F0.24744478779905296
sg25
F0.01228550157492107
sg26
F1.0
sg27
F0.011200759837784508
ss.