(lp0
S'poi'
p1
aS'salary'
p2
aS'bonus'
p3
aS'long_term_incentive'
p4
aS'deferred_income'
p5
aS'loan_advances'
p6
aS'expenses'
p7
aS'total_payments'
p8
aS'exercised_stock_options'
p9
aS'restricted_stock'
p10
aS'restricted_stock_deferred'
p11
aS'total_stock_value'
p12
aS'to_messages'
p13
aS'from_poi_to_this_person'
p14
aS'from_this_person_to_poi'
p15
aS'shared_receipt_with_poi'
p16
aS'to_poi_ratio'
p17
aS'from_poi_ratio'
p18
aS'shared_poi_ratio'
p19
aS'bonus_to_salary_ratio'
p20
aS'bonus_to_total_ratio'
p21
aS'non_salary'
p22
a.